(lp0
I0
aI0
aI16
aI16
aI16
aI19
aI16
aI0
aI18
aI21
aI19
aI21
aI19
aI21
aI0
aI0
aI16
aI0
aI16
aI20
aI20
aI17
aI18
aI16
aI16
aI16
aI16
aI0
aI0
aI0
aI20
aI17
aI19
aI17
aI20
aI0
aI17
aI16
aI19
aI0
aI16
aI19
aI16
aI21
aI16
aI16
aI21
aI16
aI20
aI20
aI21
aI19
aI21
aI0
aI0
aI18
aI21
aI20
aI0
aI19
aI19
aI20
aI16
aI17
aI17
aI18
aI16
aI16
aI16
aI16
aI21
aI21
aI16
aI16
aI16
aI16
aI0
aI16
aI16
aI16
aI19
aI17
aI19
aI18
aI19
aI16
aI16
aI16
aI19
aI20
aI20
aI16
aI0
aI16
aI0
aI20
aI16
aI16
aI0
aI20
aI21
aI16
aI16
aI19
aI0
aI16
aI0
aI16
aI16
aI16
aI16
aI0
aI16
aI21
aI16
aI19
aI19
aI16
aI17
aI16
aI21
aI0
aI16
aI19
aI19
aI17
aI16
aI20
aI17
aI18
aI0
aI16
aI16
aI19
aI21
aI17
aI16
aI16
aI19
aI21
aI16
aI16
aI21
aI17
aI21
aI0
aI16
aI16
aI16
aI16
aI16
aI17
aI16
aI16
aI16
aI17
aI16
aI0
aI0
aI16
aI19
aI0
aI0
aI0
aI20
aI16
aI16
aI16
aI0
aI21
aI16
aI17
aI16
aI0
aI0
aI19
aI0
aI20
aI16
aI16
aI21
aI19
aI20
aI19
aI0
aI20
aI0
aI20
aI18
aI0
aI0
aI16
aI16
aI19
aI16
aI0
aI19
aI16
aI17
aI0
aI20
aI16
aI21
aI16
aI21
aI21
aI21
aI16
aI16
aI0
aI19
aI17
aI16
aI16
aI20
aI16
aI16
aI19
aI19
aI21
aI18
aI17
aI16
aI16
aI0
aI0
aI16
aI16
aI16
aI0
aI20
aI0
aI19
aI16
aI21
aI16
aI0
aI19
aI19
aI16
aI18
aI16
aI16
aI16
aI16
aI16
aI0
aI20
aI16
aI16
aI16
aI16
aI19
aI21
aI0
aI18
aI0
aI18
aI17
aI16
aI21
aI17
aI21
aI16
aI21
aI21
aI16
aI16
aI0
aI16
aI16
aI16
aI20
aI0
aI16
aI16
aI18
aI16
aI21
aI20
aI19
aI16
aI18
aI16
aI21
aI16
aI21
aI0
aI20
aI19
aI17
aI16
aI21
aI0
aI21
aI21
aI0
aI0
aI0
aI21
aI0
aI0
aI17
aI0
aI17
aI21
aI16
aI20
aI18
aI19
aI0
aI19
aI16
aI16
aI16
aI0
aI16
aI21
aI16
aI16
aI16
aI17
aI16
aI20
aI16
aI16
aI18
aI21
aI16
aI19
aI17
aI21
aI16
aI21
aI19
aI0
aI19
aI17
aI17
aI18
aI16
aI21
aI16
aI16
aI16
aI0
aI20
aI19
aI16
aI19
aI18
aI21
aI0
aI18
aI16
aI16
aI0
aI16
aI16
aI19
aI16
aI21
aI16
aI21
aI20
aI21
aI0
aI0
aI18
aI16
aI16
aI16
aI16
aI16
aI21
aI16
aI16
aI16
aI21
aI16
aI17
aI21
aI19
aI0
aI16
aI18
aI16
aI16
aI16
aI16
aI21
aI20
aI0
aI17
aI16
aI19
aI16
aI16
aI0
aI16
aI0
aI0
aI16
aI0
aI21
aI16
aI17
aI20
aI0
aI0
aI20
aI18
aI16
aI20
aI19
aI21
aI16
aI20
aI17
aI21
aI19
aI0
aI0
aI0
aI21
aI17
aI19
aI16
aI16
aI16
aI0
aI16
aI20
aI16
aI21
aI0
aI21
aI16
aI16
aI20
aI0
aI21
aI16
aI21
aI16
aI17
aI21
aI16
aI21
aI16
aI19
aI16
aI16
aI21
aI16
aI16
aI16
aI21
aI17
aI21
aI0
aI17
aI16
aI16
aI17
aI0
aI16
aI20
aI21
aI0
aI16
aI20
aI16
aI16
aI16
aI0
aI16
aI20
aI21
aI21
aI0
aI16
aI16
aI16
aI21
aI0
aI20
aI0
aI0
aI17
aI21
aI17
aI20
aI21
aI21
aI0
aI16
aI16
aI16
aI0
aI16
aI20
aI16
aI21
aI16
aI21
aI19
aI16
aI16
aI16
aI0
aI21
aI16
aI16
aI21
aI0
aI0
aI17
aI17
aI21
aI16
aI21
aI17
aI17
aI16
aI0
aI21
aI21
aI16
aI20
aI16
aI17
aI17
aI21
aI20
aI16
aI16
aI18
aI18
aI17
aI17
aI16
aI19
aI21
aI0
aI20
aI21
aI0
aI21
aI0
aI19
aI0
aI21
aI16
aI17
aI17
aI20
aI0
aI21
aI20
aI21
aI17
aI0
aI16
aI16
aI21
aI0
aI19
aI16
aI0
aI0
aI21
aI16
aI16
aI16
aI16
aI16
aI0
aI19
aI16
aI20
aI19
aI20
aI0
aI21
aI16
aI20
aI21
aI19
aI0
aI0
aI16
aI19
aI0
aI21
aI21
aI18
aI21
aI0
aI19
aI21
aI17
aI16
aI17
aI16
aI18
aI16
aI16
aI20
aI16
aI19
aI0
aI19
aI19
aI19
aI19
aI18
aI16
aI20
aI16
aI16
aI19
aI18
aI0
aI18
aI16
aI16
aI21
aI16
aI21
aI18
aI19
aI0
aI20
aI16
aI0
aI0
aI16
aI16
aI20
aI20
aI17
aI16
aI0
aI21
aI21
aI0
aI16
aI0
aI16
aI18
aI16
aI21
aI16
aI17
aI16
aI19
aI20
aI21
aI16
aI20
aI16
aI19
aI0
aI21
aI0
aI0
aI21
aI16
aI20
aI16
aI16
aI16
aI17
aI16
aI20
aI21
aI21
aI0
aI21
aI21
aI21
aI16
aI21
aI21
aI16
aI16
aI21
aI16
aI16
aI16
aI20
aI19
aI18
aI21
aI20
aI16
aI19
aI18
aI18
aI19
aI20
aI21
aI16
aI16
aI17
aI16
aI16
aI18
aI0
aI0
aI19
aI21
aI16
aI0
aI21
aI21
aI0
aI16
aI16
aI16
aI16
aI16
aI19
aI16
aI16
aI21
aI19
aI18
aI16
aI0
aI16
aI16
aI0
aI21
aI0
aI16
aI19
aI0
aI0
aI17
aI16
aI0
aI16
aI16
aI0
aI18
aI20
aI16
aI21
aI16
aI21
aI16
aI21
aI16
aI16
aI16
aI16
aI16
aI16
aI21
aI20
aI17
aI21
aI21
aI16
aI16
aI18
aI17
aI16
aI0
aI16
aI16
aI16
aI16
aI16
aI17
aI16
aI21
aI16
aI16
aI16
aI18
aI17
aI16
aI16
aI16
aI16
aI21
aI21
aI21
aI20
aI18
aI18
aI16
aI0
aI18
aI21
aI21
aI20
aI16
aI16
aI18
aI17
aI19
aI16
aI16
aI21
aI16
aI16
aI16
aI21
aI0
aI17
aI19
aI21
aI16
aI20
aI18
aI20
aI20
aI0
aI20
aI16
aI20
aI0
aI16
aI16
aI0
aI16
aI0
aI20
aI20
aI17
aI16
aI16
aI16
aI17
aI19
aI19
aI21
aI16
aI16
aI16
aI18
aI16
aI0
aI21
aI21
aI16
aI16
aI20
aI16
aI19
aI16
aI0
aI16
aI19
aI16
aI16
aI21
aI21
aI16
aI0
aI21
aI0
aI16
aI19
aI19
aI17
aI16
aI21
aI20
aI20
aI21
aI21
aI16
aI18
aI16
aI16
aI21
aI20
aI19
aI0
aI19
aI19
aI17
aI16
aI16
aI16
aI0
aI21
aI16
aI16
aI0
aI21
aI19
aI16
aI20
aI18
aI19
aI21
aI16
aI17
aI19
aI16
aI0
aI19
aI16
aI17
aI16
aI16
aI21
aI21
aI19
aI0
aI0
aI20
aI18
aI16
aI19
aI0
aI16
aI0
aI18
aI19
aI16
aI0
aI16
aI16
aI18
aI16
aI16
aI21
aI16
aI20
aI16
aI20
aI20
aI16
aI16
aI16
aI16
aI19
aI21
aI16
aI19
aI20
aI16
aI16
aI0
aI17
aI20
aI20
aI19
aI0
aI21
aI21
aI0
aI16
aI18
aI17
aI20
aI20
aI0
aI16
aI16
aI16
aI17
aI21
aI20
aI20
aI16
aI16
aI21
aI16
aI21
aI17
aI19
aI16
aI16
aI0
aI17
aI20
aI0
aI19
aI19
aI20
aI16
aI16
aI0
aI20
aI21
aI16
aI0
aI21
aI21
aI0
aI20
aI0
aI17
aI16
aI19
aI19
aI16
aI19
aI16
aI0
aI17
aI21
aI21
aI0
aI18
aI0
aI21
aI16
aI21
aI16
aI16
aI20
aI19
aI19
aI18
aI16
aI21
aI21
aI21
aI16
aI0
aI21
aI20
aI0
aI16
aI0
aI16
aI17
aI16
aI0
aI21
aI18
aI17
aI0
aI0
aI20
aI21
aI19
aI0
aI21
aI21
aI19
aI21
aI21
aI0
aI21
aI0
aI17
aI16
aI0
aI19
aI16
aI21
aI19
aI21
aI16
aI16
aI0
aI21
aI21
aI16
aI19
aI21
aI20
aI21
aI16
aI21
aI20
aI19
aI16
aI16
aI17
aI16
aI16
aI0
aI18
aI19
aI20
aI20
aI0
aI17
aI16
aI16
aI20
aI19
aI21
aI0
aI20
aI16
aI20
aI0
aI21
aI16
aI16
aI16
aI18
aI0
aI21
aI0
aI16
aI17
aI0
aI16
aI17
aI16
aI16
aI16
aI20
aI16
aI20
aI16
aI0
aI16
aI16
aI16
aI21
aI16
aI21
aI20
aI18
aI0
aI16
aI0
aI19
aI16
aI21
aI16
aI1
aI0
aI16
aI21
aI0
aI16
aI20
aI0
aI16
aI19
aI17
aI16
aI19
aI17
aI19
aI17
aI20
aI16
aI16
aI21
aI16
aI21
aI19
aI21
aI16
aI20
aI16
aI16
aI21
aI21
aI21
aI21
aI21
aI16
aI20
aI21
aI0
aI0
aI0
aI0
aI0
aI16
aI19
aI16
aI16
aI21
aI20
aI21
aI19
aI0
aI21
aI16
aI0
aI0
aI19
aI19
aI16
aI0
aI16
aI21
aI17
aI16
aI21
aI16
aI16
aI16
aI20
aI16
aI16
aI16
aI17
aI16
aI0
aI20
aI19
aI20
aI0
aI16
aI21
aI16
aI20
aI21
aI0
aI0
aI19
aI16
aI0
aI0
aI19
aI16
aI16
aI0
aI16
aI0
aI19
aI19
aI21
aI16
aI20
aI16
aI0
aI16
aI19
aI16
aI19
aI0
aI20
aI18
aI21
aI0
aI20
aI0
aI16
aI16
aI17
aI16
aI16
aI16
aI0
aI16
aI19
aI16
aI0
aI21
aI21
aI16
aI17
aI0
aI16
aI16
aI20
aI16
aI0
aI16
aI0
aI0
aI0
aI20
aI19
aI16
aI21
aI21
aI16
aI20
aI16
aI16
aI16
aI0
aI16
aI19
aI19
aI16
aI17
aI20
aI19
aI16
aI19
aI21
aI16
aI20
aI18
aI21
aI20
aI20
aI16
aI0
aI21
aI21
aI16
aI21
aI19
aI21
aI21
aI21
aI20
aI19
aI20
aI0
aI20
aI0
aI0
aI17
aI21
aI17
aI20
aI16
aI0
aI19
aI21
aI20
aI17
aI16
aI0
aI16
aI20
aI20
aI16
aI0
aI19
aI17
aI19
aI19
aI20
aI19
aI20
aI16
aI20
aI0
aI16
aI0
aI18
aI17
aI16
aI16
aI0
aI16
aI20
aI16
aI16
aI21
aI0
aI0
aI19
aI20
aI0
aI16
aI21
aI21
aI16
aI16
aI19
aI21
aI21
aI16
aI16
aI18
aI18
aI16
aI16
aI21
aI20
aI0
aI0
aI0
aI16
aI0
aI16
aI20
aI0
aI21
aI17
aI20
aI16
aI16
aI20
aI21
aI19
aI16
aI20
aI16
aI16
aI21
aI16
aI16
aI0
aI21
aI16
aI21
aI20
aI21
aI16
aI0
aI16
aI16
aI16
aI16
aI21
aI21
aI20
aI16
aI19
aI21
aI21
aI19
aI16
aI16
aI21
aI21
aI20
aI0
aI16
aI19
aI16
aI17
aI16
aI21
aI16
aI16
aI0
aI16
aI18
aI18
aI16
aI16
aI19
aI21
aI17
aI0
aI20
aI17
aI21
aI16
aI0
aI21
aI21
aI19
aI16
aI16
aI0
aI20
aI19
aI21
aI19
aI21
aI19
aI20
aI20
aI0
aI21
aI20
aI16
aI16
aI0
aI0
aI20
aI16
aI0
aI16
aI21
aI0
aI0
aI18
aI16
aI19
aI16
aI0
aI16
aI21
aI21
aI21
aI17
aI16
aI16
aI16
aI0
aI16
aI16
aI21
aI0
aI0
aI16
aI0
aI16
aI16
aI16
aI21
aI16
aI16
aI19
aI18
aI21
aI21
aI16
aI21
aI0
aI19
aI21
aI17
aI0
aI20
aI21
aI20
aI0
aI16
aI16
aI0
aI16
aI21
aI20
aI16
aI21
aI16
aI0
aI16
aI0
aI21
aI16
aI16
aI16
aI21
aI19
aI16
aI20
aI0
aI21
aI17
aI16
aI16
aI17
aI21
aI19
aI18
aI20
aI16
aI0
aI21
aI21
aI0
aI16
aI16
aI21
aI0
aI17
aI20
aI18
aI21
aI0
aI16
aI16
aI16
aI16
aI0
aI16
aI16
aI20
aI17
aI16
aI19
aI0
aI18
aI21
aI16
aI17
aI19
aI20
aI0
aI21
aI16
aI16
aI16
aI16
aI19
aI0
aI21
aI16
aI19
aI20
aI16
aI18
aI21
aI19
aI19
aI0
aI0
aI21
aI16
aI21
aI16
aI16
aI18
aI21
aI17
aI21
aI19
aI0
aI20
aI19
aI16
aI16
aI21
aI16
aI0
aI16
aI16
aI16
aI0
aI21
aI16
aI21
aI16
aI0
aI16
aI21
aI21
aI16
aI16
aI16
aI19
aI16
aI21
aI21
aI16
aI19
aI21
aI19
aI0
aI19
aI21
aI21
aI0
aI18
aI21
aI16
aI21
aI21
aI16
aI21
aI16
aI16
aI16
aI16
aI21
aI16
aI18
aI21
aI19
aI19
aI21
aI21
aI16
aI19
aI19
aI21
aI0
aI21
aI19
aI17
aI17
aI21
aI18
aI0
aI16
aI17
aI19
aI0
aI21
aI21
aI17
aI16
aI0
aI16
aI17
aI16
aI17
aI0
aI21
aI0
aI21
aI0
aI20
aI16
aI17
aI18
aI16
aI0
aI21
aI16
aI0
aI18
aI0
aI21
aI0
aI16
aI21
aI17
aI0
aI16
aI0
aI18
aI0
aI16
aI16
aI0
aI16
aI16
aI16
aI16
aI20
aI21
aI19
aI18
aI0
aI21
aI21
aI16
aI20
aI21
aI16
aI21
aI0
aI21
aI0
aI19
aI16
aI16
aI16
aI16
aI16
aI16
aI21
aI17
aI19
aI0
aI0
aI18
aI21
aI16
aI16
aI21
aI21
aI19
aI20
aI16
aI17
aI16
aI16
aI17
aI17
aI16
aI17
aI0
aI16
aI16
aI16
aI0
aI16
aI18
aI21
aI0
aI0
aI21
aI17
aI19
aI16
aI0
aI0
aI16
aI19
aI16
aI16
aI19
aI16
aI19
aI19
aI0
aI21
aI21
aI16
aI0
aI20
aI0
aI20
aI20
aI16
aI21
aI16
aI16
aI0
aI0
aI21
aI0
aI20
aI20
aI21
aI21
aI0
aI21
aI16
aI21
aI16
aI21
aI0
aI16
aI0
aI16
aI19
aI16
aI0
aI18
aI16
aI0
aI0
aI19
aI16
aI16
aI0
aI0
aI17
aI16
aI16
aI21
aI19
aI16
aI0
aI0
aI21
aI16
aI16
aI16
aI16
aI16
aI16
aI16
aI20
aI16
aI20
aI16
aI16
aI16
aI0
aI19
aI16
aI18
aI20
aI21
aI21
aI21
aI16
aI17
aI19
aI21
aI18
aI16
aI16
aI16
aI16
aI21
aI21
aI20
aI16
aI21
aI19
aI20
aI16
aI17
aI16
aI21
aI16
aI16
aI20
aI16
aI16
aI16
aI21
aI19
aI20
aI0
aI16
aI19
aI21
aI0
aI0
aI16
aI20
aI16
aI21
aI21
aI16
aI0
aI16
aI16
aI0
aI16
aI16
aI20
aI16
aI16
aI21
aI19
aI21
aI21
aI20
aI16
aI16
aI21
aI16
aI21
aI19
aI21
aI21
aI19
aI21
aI0
aI16
aI0
aI0
aI0
aI16
aI17
aI16
aI16
aI0
aI16
aI16
aI21
aI19
aI20
aI16
aI21
aI0
aI0
aI16
aI18
aI16
aI21
aI16
aI19
aI21
aI18
aI21
aI19
aI20
aI0
aI16
aI20
aI17
aI16
aI16
aI18
aI19
aI0
aI18
aI0
aI20
aI19
aI0
aI0
aI2
aI0
aI16
aI16
aI16
aI21
aI16
aI16
aI16
aI16
aI21
aI21
aI20
aI16
aI16
aI18
aI16
aI16
aI16
aI16
aI0
aI0
aI16
aI18
aI16
aI20
aI16
aI21
aI21
aI16
aI17
aI21
aI16
aI21
aI20
aI17
aI0
aI17
aI20
aI16
aI21
aI19
aI21
aI18
aI20
aI19
aI16
aI19
aI20
aI0
aI0
aI16
aI17
aI0
aI0
aI0
aI16
aI16
aI16
aI16
aI16
aI16
aI20
aI21
aI21
aI20
aI0
aI18
aI16
aI17
aI20
aI16
aI20
aI16
aI16
aI21
aI0
aI20
aI16
aI16
aI16
aI21
aI21
aI16
aI21
aI16
aI21
aI16
aI20
aI16
aI0
aI20
aI16
aI0
aI0
aI21
aI21
aI19
aI0
aI21
aI19
aI16
aI19
aI20
aI0
aI0
aI17
aI0
aI16
aI21
aI16
aI16
aI20
aI21
aI16
aI0
aI21
aI16
aI21
aI20
aI20
aI0
aI20
aI20
aI21
aI16
aI21
aI21
aI0
aI0
aI16
aI21
aI16
aI0
aI16
aI21
aI21
aI16
aI19
aI18
aI0
aI16
aI16
aI16
aI21
aI20
aI16
aI21
aI20
aI0
aI16
aI16
aI0
aI17
aI16
aI0
aI16
aI16
aI16
aI21
aI16
aI17
aI16
aI21
aI20
aI0
aI16
aI21
aI16
aI19
aI21
aI21
aI16
aI16
aI16
aI21
aI18
aI16
aI19
aI20
aI16
aI17
aI20
aI16
aI0
aI16
aI18
aI21
aI16
aI16
aI0
aI0
aI21
aI21
aI20
aI19
aI16
aI19
aI19
aI18
aI0
aI16
aI21
aI0
aI20
aI16
aI16
aI21
aI21
aI16
aI16
aI21
aI0
aI17
aI18
aI16
aI16
aI16
aI16
aI0
aI20
aI20
aI0
aI0
aI16
aI16
aI16
aI21
aI21
aI16
aI21
aI16
aI16
aI16
aI16
aI0
aI17
aI19
aI18
aI21
aI21
aI21
aI19
aI0
aI19
aI0
aI21
aI17
aI16
aI16
aI21
aI0
aI0
aI0
aI16
aI0
aI19
aI20
aI21
aI16
aI16
aI0
aI16
aI16
aI16
aI0
aI16
aI0
aI21
aI16
aI21
aI16
aI16
aI16
aI19
aI16
aI16
aI16
aI20
aI20
aI16
aI16
aI21
aI21
aI18
aI20
aI21
aI0
aI0
aI20
aI18
aI16
aI21
aI16
aI21
aI16
aI20
aI0
aI18
aI0
aI19
aI20
aI17
aI0
aI16
aI20
aI20
aI16
aI0
aI16
aI18
aI17
aI0
aI0
aI0
aI16
aI16
aI16
aI0
aI16
aI16
aI16
aI16
aI20
aI16
aI0
aI0
aI16
aI18
aI16
aI18
aI16
aI0
aI17
aI16
aI16
aI16
aI19
aI21
aI16
aI16
aI0
aI21
aI19
aI0
aI18
aI0
aI0
aI16
aI21
aI17
aI0
aI0
aI21
aI21
aI16
aI0
aI16
aI17
aI21
aI20
aI20
aI16
aI19
aI21
aI21
aI0
aI20
aI20
aI19
aI16
aI21
aI16
aI17
aI20
aI0
aI18
aI21
aI21
aI17
aI20
aI21
aI17
aI0
aI17
aI18
aI16
aI0
aI20
aI21
aI19
aI21
aI0
aI21
aI16
aI21
aI21
aI19
aI18
aI20
aI17
aI21
aI20
aI16
aI21
aI16
aI0
aI17
aI16
aI17
aI17
aI20
aI16
aI20
aI16
aI21
aI0
aI16
aI20
aI16
aI16
aI0
aI18
aI21
aI16
aI21
aI18
aI21
aI16
aI16
aI16
aI16
aI16
aI16
aI16
aI16
aI20
aI0
aI20
aI16
aI16
aI0
aI16
aI0
aI0
aI16
aI21
aI16
aI16
aI16
aI16
aI0
aI19
aI16
aI16
aI0
aI19
aI21
aI16
aI20
aI16
aI21
aI0
aI16
aI16
aI20
aI20
aI20
aI16
aI16
aI16
aI0
aI16
aI16
aI17
aI0
aI16
aI16
aI17
aI20
aI16
aI0
aI16
aI19
aI16
aI20
aI16
aI21
aI0
aI20
aI16
aI19
aI20
aI16
aI19
aI20
aI0
aI21
aI17
aI0
aI21
aI16
aI20
aI0
aI21
aI20
aI0
aI20
aI16
aI19
aI16
aI16
aI18
aI21
aI16
aI21
aI16
aI16
aI21
aI17
aI16
aI16
aI16
aI18
aI16
aI16
aI21
aI20
aI21
aI0
aI0
aI16
aI19
aI20
aI20
aI16
aI16
aI16
aI21
aI21
aI21
aI19
aI20
aI16
aI16
aI19
aI16
aI21
aI16
aI0
aI18
aI20
aI21
aI20
aI16
aI17
aI16
aI16
aI0
aI19
aI18
aI19
aI20
aI21
aI21
aI0
aI20
aI19
aI20
aI16
aI0
aI20
aI16
aI19
aI0
aI16
aI17
aI16
aI21
aI21
aI16
aI16
aI19
aI19
aI16
aI16
aI0
aI21
aI20
aI20
aI16
aI0
aI16
aI16
aI16
aI16
aI20
aI16
aI16
aI17
aI17
aI16
aI21
aI16
aI21
aI16
aI0
aI21
aI0
aI20
aI21
aI0
aI21
aI21
aI17
aI16
aI16
aI16
aI0
aI20
aI16
aI17
aI0
aI20
aI21
aI19
aI21
aI20
aI0
aI0
aI20
aI0
aI20
aI21
aI20
aI19
aI19
aI19
aI16
aI16
aI0
aI21
aI20
aI20
aI17
aI16
aI18
aI21
aI16
aI16
aI21
aI16
aI16
aI0
aI16
aI21
aI18
aI16
aI21
aI16
aI20
aI16
aI0
aI21
aI16
aI16
aI18
aI16
aI19
aI16
aI20
aI19
aI21
aI21
aI21
aI20
aI0
aI21
aI16
aI21
aI16
aI16
aI17
aI16
aI16
aI18
aI16
aI21
aI16
aI16
aI17
aI20
aI21
aI16
aI0
aI16
aI16
aI16
aI0
aI0
aI21
aI17
aI18
aI16
aI0
aI18
aI16
aI16
aI20
aI21
aI0
aI19
aI16
aI0
aI16
aI21
aI0
aI19
aI19
aI0
aI16
aI16
aI0
aI16
aI16
aI20
aI16
aI0
aI16
aI0
aI16
aI21
aI17
aI21
aI19
aI21
aI16
aI21
aI0
aI0
aI20
aI16
aI0
aI0
aI21
aI16
aI16
aI16
aI16
aI21
aI16
aI0
aI16
aI0
aI18
aI16
aI16
aI0
aI16
aI16
aI20
aI19
aI16
aI21
aI16
aI18
aI16
aI17
aI16
aI16
aI16
aI16
aI21
aI19
aI0
aI21
aI16
aI20
aI17
aI0
aI21
aI19
aI18
aI17
aI18
aI16
aI18
aI21
aI0
aI18
aI16
aI0
aI17
aI16
aI18
aI18
aI21
aI17
aI16
aI18
aI19
aI16
aI0
aI16
aI16
aI21
aI0
aI0
aI18
aI16
aI0
aI16
aI16
aI16
aI20
aI16
aI16
aI17
aI16
aI21
aI16
aI0
aI20
aI0
aI19
aI21
aI21
aI18
aI21
aI16
aI16
aI20
aI21
aI16
aI0
aI19
aI20
aI16
aI20
aI21
aI16
aI17
aI20
aI16
aI16
aI16
aI0
aI16
aI16
aI17
aI16
aI18
aI16
aI16
aI21
aI16
aI21
aI17
aI16
aI21
aI16
aI19
aI21
aI19
aI16
aI16
aI16
aI0
aI18
aI16
aI16
aI17
aI16
aI16
aI19
aI16
aI16
aI16
aI21
aI20
aI17
aI21
aI19
aI16
aI16
aI19
aI18
aI21
aI21
aI20
aI0
aI16
aI20
aI21
aI0
aI16
aI21
aI16
aI0
aI19
aI16
aI16
aI16
aI17
aI21
aI21
aI21
aI16
aI21
aI0
aI16
aI16
aI17
aI21
aI16
aI0
aI16
aI16
aI19
aI16
aI17
aI21
aI16
aI21
aI0
aI16
aI0
aI0
aI16
aI18
aI16
aI16
aI16
aI0
aI20
aI0
aI19
aI19
aI16
aI19
aI21
aI21
aI16
aI21
aI16
aI17
aI19
aI0
aI17
aI17
aI0
aI19
aI16
aI0
aI0
aI16
aI16
aI0
aI21
aI17
aI16
aI19
aI16
aI19
aI16
aI16
aI0
aI16
aI16
aI19
aI16
aI21
aI21
aI16
aI20
aI0
aI20
aI20
aI19
aI16
aI20
aI21
aI19
aI16
aI16
aI0
aI18
aI0
aI16
aI16
aI0
aI16
aI16
aI18
aI0
aI16
aI21
aI16
aI20
aI0
aI16
aI21
aI21
aI19
aI20
aI0
aI21
aI19
aI21
aI16
aI21
aI16
aI21
aI21
aI16
aI19
aI0
aI0
aI17
aI17
aI0
aI21
aI21
aI20
aI21
aI18
aI19
aI16
aI16
aI21
aI16
aI21
aI0
aI19
aI16
aI16
aI16
aI0
aI16
aI16
aI16
aI16
aI21
aI0
aI16
aI16
aI16
aI18
aI16
aI21
aI0
aI16
aI20
aI0
aI18
aI19
aI16
aI0
aI19
aI21
aI17
aI0
aI16
aI0
aI16
aI21
aI21
aI20
aI17
aI16
aI16
aI21
aI19
aI20
aI0
aI21
aI21
aI16
aI16
aI21
aI0
aI16
aI20
aI16
aI18
aI0
aI0
aI18
aI0
aI16
aI20
aI17
aI21
aI20
aI20
aI20
aI20
aI16
aI0
aI16
aI19
aI16
aI16
aI19
aI20
aI21
aI19
aI18
aI16
aI0
aI21
aI16
aI0
aI16
aI19
aI16
aI21
aI21
aI16
aI16
aI0
aI16
aI16
aI18
aI21
aI16
aI16
aI0
aI16
aI0
aI16
aI20
aI20
aI0
aI16
aI16
aI16
aI20
aI0
aI16
aI17
aI19
aI21
aI20
aI16
aI0
aI0
aI16
aI16
aI16
aI16
aI16
aI17
aI19
aI18
aI16
aI0
aI0
aI20
aI16
aI20
aI0
aI19
aI16
aI18
aI21
aI16
aI21
aI16
aI16
aI21
aI16
aI21
aI21
aI21
aI16
aI19
aI19
aI21
aI16
aI18
aI17
aI20
aI21
aI20
aI0
aI19
aI18
aI21
aI18
aI0
aI19
aI21
aI16
aI18
aI0
aI16
aI20
aI20
aI21
aI21
aI17
aI16
aI16
aI0
aI18
aI18
aI21
aI16
aI20
aI20
aI0
aI16
aI17
aI20
aI0
aI21
aI18
aI18
aI0
aI16
aI0
aI16
aI16
aI21
aI18
aI16
aI19
aI16
aI21
aI20
aI16
aI21
aI21
aI18
aI16
aI20
aI16
aI0
aI0
aI0
aI17
aI0
aI16
aI16
aI16
aI16
aI21
aI19
aI16
aI0
aI16
aI16
aI17
aI19
aI16
aI16
aI16
aI20
aI0
aI17
aI18
aI21
aI0
aI17
aI0
aI0
aI21
aI18
aI21
aI0
aI19
aI17
aI21
aI16
aI16
aI16
aI19
aI18
aI21
aI20
aI21
aI16
aI16
aI16
aI16
aI21
aI16
aI16
aI21
aI16
aI16
aI16
aI16
aI19
aI16
aI16
aI16
aI0
aI19
aI16
aI21
aI16
aI21
aI19
aI17
aI0
aI0
aI17
aI16
aI16
aI16
aI0
aI16
aI21
aI21
aI19
aI21
aI21
aI17
aI16
aI21
aI16
aI20
aI16
aI17
aI19
aI16
aI16
aI21
aI19
aI16
aI19
aI16
aI21
aI17
aI18
aI17
aI16
aI21
aI16
aI16
aI20
aI19
aI20
aI19
aI19
aI16
aI16
aI0
aI16
aI16
aI19
aI0
aI17
aI21
aI17
aI21
aI16
aI16
aI16
aI16
aI16
aI16
aI18
aI0
aI21
aI16
aI19
aI21
aI16
aI18
aI18
aI20
aI16
aI19
aI21
aI19
aI19
aI17
aI17
aI0
aI16
aI0
aI16
aI0
aI19
aI16
aI16
aI0
aI0
aI0
aI21
aI0
aI0
aI21
aI18
aI20
aI19
aI16
aI0
aI0
aI20
aI17
aI16
aI16
aI16
aI0
aI16
aI17
aI18
aI20
aI19
aI21
aI16
aI21
aI0
aI0
aI19
aI16
aI16
aI16
aI16
aI16
aI0
aI17
aI21
aI18
aI16
aI0
aI21
aI16
aI21
aI16
aI19
aI19
aI20
aI16
aI21
aI21
aI20
aI19
aI16
aI0
aI16
aI16
aI0
aI16
aI19
aI18
aI21
aI21
aI16
aI18
aI21
aI21
aI21
aI21
aI21
aI16
aI20
aI19
aI16
aI19
aI16
aI21
aI21
aI18
aI18
aI21
aI16
aI16
aI18
aI18
aI17
aI0
aI19
aI18
aI17
aI16
aI21
aI20
aI16
aI16
aI16
aI21
aI17
aI21
aI18
aI19
aI21
aI17
aI16
aI19
aI0
aI0
aI0
aI17
aI17
aI0
aI21
aI0
aI16
aI16
aI21
aI19
aI21
aI21
aI19
aI0
aI21
aI16
aI19
aI16
aI16
aI16
aI17
aI18
aI16
aI16
aI19
aI18
aI16
aI16
aI16
aI0
aI20
aI19
aI18
aI0
aI20
aI20
aI18
aI19
aI16
aI16
aI16
aI20
aI16
aI21
aI16
aI16
aI19
aI0
aI16
aI19
aI19
aI16
aI16
aI21
aI19
aI0
aI17
aI16
aI21
aI19
aI16
aI16
aI16
aI16
aI16
aI19
aI16
aI16
aI17
aI16
aI21
aI0
aI17
aI19
aI21
aI20
aI0
aI0
aI16
aI0
aI16
aI16
aI21
aI0
aI16
aI21
aI16
aI16
aI21
aI16
aI16
aI20
aI16
aI16
aI21
aI16
aI17
aI20
aI19
aI20
aI20
aI16
aI16
aI16
aI21
aI0
aI21
aI0
aI21
aI19
aI21
aI16
aI16
aI16
aI16
aI16
aI20
aI21
aI0
aI0
aI19
aI16
aI0
aI21
aI0
aI21
aI16
aI0
aI0
aI20
aI21
aI21
aI16
aI20
aI16
aI0
aI16
aI21
aI16
aI20
aI16
aI19
aI21
aI16
aI16
aI17
aI16
aI21
aI21
aI16
aI21
aI16
aI0
aI17
aI0
aI19
aI16
aI21
aI0
aI16
aI20
aI16
aI20
aI0
aI16
aI18
aI21
aI20
aI17
aI21
aI0
aI16
aI16
aI0
aI21
aI20
aI16
aI0
aI20
aI21
aI21
aI19
aI0
aI21
aI16
aI0
aI19
aI20
aI21
aI0
aI18
aI19
aI0
aI19
aI0
aI16
aI20
aI21
aI16
aI19
aI16
aI21
aI20
aI16
aI20
aI16
aI18
aI21
aI0
aI16
aI20
aI18
aI16
aI0
aI21
aI16
aI20
aI16
aI0
aI19
aI19
aI21
aI19
aI16
aI16
aI16
aI16
aI16
aI16
aI20
aI0
aI0
aI20
aI20
aI21
aI0
aI16
aI18
aI21
aI16
aI21
aI21
aI18
aI21
aI20
aI21
aI0
aI0
aI21
aI20
aI0
aI16
aI18
aI16
aI16
aI17
aI21
aI17
aI16
aI0
aI21
aI0
aI0
aI20
aI19
aI18
aI17
aI20
aI16
aI16
aI16
aI19
aI0
aI16
aI0
aI16
aI16
aI16
aI16
aI0
aI21
aI16
aI16
aI17
aI0
aI16
aI16
aI16
aI0
aI0
aI20
aI0
aI16
aI18
aI16
aI20
aI21
aI21
aI16
aI19
aI21
aI0
aI16
aI21
aI16
aI0
aI16
aI16
aI0
aI21
aI20
aI16
aI19
aI16
aI17
aI0
aI16
aI20
aI16
aI16
aI19
aI17
aI0
aI0
aI16
aI21
aI16
aI18
aI20
aI16
aI21
aI16
aI21
aI20
aI0
aI0
aI16
aI16
aI20
aI16
aI0
aI17
aI18
aI16
aI20
aI19
aI16
aI19
aI0
aI16
aI19
aI17
aI21
aI21
aI17
aI21
aI0
aI16
aI16
aI19
aI21
aI18
aI19
aI19
aI3
aI16
aI20
aI21
aI16
aI16
aI18
aI20
aI16
aI16
aI16
aI16
aI0
aI21
aI21
aI16
aI21
aI0
aI16
aI16
aI0
aI0
aI19
aI16
aI0
aI21
aI16
aI21
aI0
aI21
aI21
aI16
aI0
aI18
aI19
aI19
aI16
aI20
aI21
aI0
aI0
aI21
aI21
aI16
aI0
aI20
aI16
aI17
aI21
aI16
aI16
aI16
aI16
aI20
aI20
aI16
aI20
aI16
aI21
aI16
aI16
aI18
aI18
aI19
aI0
aI17
aI19
aI0
aI21
aI16
aI0
aI16
aI21
aI0
aI0
aI20
aI16
aI19
aI21
aI20
aI16
aI16
aI18
aI21
aI16
aI0
aI21
aI18
aI16
aI18
aI16
aI19
aI16
aI16
aI20
aI20
aI0
aI16
aI16
aI16
aI16
aI16
aI0
aI20
aI16
aI16
aI18
aI16
aI20
aI0
aI19
aI16
aI0
aI17
aI16
aI16
aI16
aI19
aI16
aI21
aI16
aI16
aI16
aI19
aI21
aI17
aI16
aI18
aI16
aI16
aI20
aI18
aI16
aI21
aI16
aI16
aI20
aI17
aI21
aI16
aI20
aI16
aI21
aI0
aI0
aI21
aI21
aI0
aI16
aI16
aI19
aI20
aI20
aI0
aI16
aI21
aI0
aI0
aI16
aI0
aI16
aI20
aI0
aI0
aI0
aI20
aI21
aI16
aI18
aI21
aI21
aI16
aI16
aI16
aI21
aI16
aI19
aI16
aI19
aI0
aI19
aI16
aI21
aI17
aI21
aI0
aI21
aI17
aI0
aI16
aI16
aI0
aI20
aI0
aI0
aI21
aI16
aI16
aI16
aI16
aI19
aI19
aI0
aI18
aI0
aI17
aI0
aI21
aI19
aI16
aI16
aI16
aI20
aI16
aI16
aI16
aI17
aI21
aI19
aI20
aI21
aI19
aI16
aI21
aI20
aI18
aI16
aI16
aI21
aI21
aI16
aI21
aI20
aI16
aI16
aI20
aI21
aI16
aI17
aI16
aI16
aI16
aI16
aI0
aI19
aI16
aI19
aI0
aI16
aI16
aI16
aI19
aI18
aI0
aI17
aI0
aI16
aI16
aI18
aI20
aI0
aI16
aI19
aI0
aI20
aI17
aI16
aI16
aI0
aI17
aI21
aI16
aI16
aI21
aI17
aI18
aI20
aI20
aI16
aI0
aI16
aI19
aI21
aI16
aI0
aI17
aI16
aI16
aI16
aI16
aI0
aI0
aI20
aI19
aI19
aI20
aI4
aI0
aI0
aI21
aI19
aI16
aI0
aI20
aI21
aI21
aI16
aI21
aI16
aI0
aI20
aI0
aI0
aI16
aI0
aI20
aI16
aI0
aI16
aI21
aI21
aI16
aI20
aI0
aI18
aI19
aI16
aI18
aI16
aI21
aI16
aI0
aI17
aI21
aI21
aI18
aI16
aI0
aI16
aI0
aI16
aI16
aI17
aI21
aI16
aI16
aI21
aI21
aI20
aI0
aI20
aI20
aI0
aI16
aI16
aI16
aI0
aI17
aI16
aI19
aI21
aI16
aI19
aI21
aI0
aI16
aI16
aI16
aI20
aI20
aI21
aI16
aI20
aI20
aI21
aI19
aI20
aI20
aI18
aI16
aI16
aI17
aI20
aI21
aI16
aI16
aI19
aI16
aI16
aI17
aI0
aI16
aI21
aI16
aI16
aI18
aI0
aI20
aI17
aI21
aI16
aI20
aI20
aI21
aI17
aI16
aI16
aI19
aI16
aI16
aI16
aI16
aI21
aI16
aI16
aI0
aI21
aI21
aI18
aI16
aI21
aI19
aI18
aI16
aI21
aI17
aI18
aI21
aI16
aI16
aI16
aI18
aI20
aI20
aI0
aI20
aI0
aI0
aI16
aI0
aI16
aI16
aI20
aI16
aI0
aI21
aI0
aI21
aI21
aI16
aI0
aI16
aI17
aI21
aI21
aI0
aI16
aI16
aI19
aI19
aI21
aI0
aI0
aI21
aI16
aI21
aI16
aI16
aI16
aI16
aI0
aI0
aI16
aI21
aI16
aI0
aI17
aI16
aI0
aI19
aI0
aI21
aI21
aI0
aI19
aI21
aI0
aI20
aI21
aI21
aI21
aI16
aI18
aI16
aI16
aI21
aI21
aI21
aI20
aI16
aI19
aI0
aI16
aI16
aI16
aI21
aI16
aI16
aI21
aI16
aI16
aI0
aI19
aI16
aI16
aI19
aI21
aI17
aI16
aI21
aI20
aI21
aI16
aI20
aI0
aI19
aI17
aI16
aI21
aI16
aI21
aI16
aI20
aI21
aI16
aI16
aI0
aI18
aI21
aI19
aI17
aI20
aI20
aI21
aI16
aI16
aI19
aI19
aI16
aI20
aI0
aI21
aI18
aI16
aI16
aI0
aI16
aI21
aI0
aI0
aI19
aI16
aI17
aI16
aI19
aI21
aI0
aI0
aI16
aI21
aI16
aI16
aI21
aI16
aI19
aI19
aI21
aI0
aI0
aI20
aI16
aI16
aI17
aI16
aI16
aI0
aI16
aI0
aI16
aI16
aI16
aI18
aI17
aI18
aI21
aI16
aI16
aI18
aI16
aI21
aI20
aI21
aI16
aI16
aI16
aI16
aI16
aI18
aI21
aI18
aI16
aI20
aI18
aI16
aI19
aI20
aI16
aI0
aI20
aI17
aI16
aI20
aI21
aI20
aI20
aI20
aI19
aI16
aI17
aI16
aI0
aI0
aI16
aI0
aI21
aI16
aI16
aI17
aI17
aI16
aI16
aI16
aI19
aI16
aI0
aI16
aI17
aI17
aI0
aI16
aI16
aI0
aI0
aI0
aI16
aI16
aI21
aI21
aI16
aI16
aI0
aI21
aI0
aI0
aI16
aI0
aI16
aI16
aI16
aI16
aI16
aI16
aI21
aI21
aI16
aI19
aI18
aI18
aI17
aI0
aI0
aI16
aI16
aI16
aI16
aI16
aI16
aI0
aI20
aI0
aI16
aI16
aI21
aI18
aI19
aI0
aI20
aI0
aI16
aI0
aI21
aI19
aI17
aI16
aI17
aI16
aI21
aI21
aI21
aI19
aI0
aI0
aI18
aI16
aI0
aI21
aI0
aI16
aI21
aI21
aI16
aI17
aI21
aI16
aI0
aI16
aI20
aI0
aI16
aI21
aI19
aI0
aI16
aI16
aI19
aI0
aI0
aI16
aI19
aI0
aI17
aI16
aI17
aI16
aI20
aI21
aI16
aI16
aI20
aI21
aI20
aI20
aI0
aI21
aI0
aI19
aI19
aI16
aI0
aI0
aI16
aI21
aI16
aI16
aI5
aI19
aI0
aI16
aI20
aI18
aI19
aI16
aI16
aI21
aI0
aI18
aI16
aI19
aI21
aI21
aI0
aI0
aI16
aI18
aI21
aI19
aI19
aI0
aI17
aI16
aI19
aI21
aI17
aI18
aI16
aI16
aI16
aI21
aI0
aI20
aI0
aI20
aI19
aI16
aI21
aI0
aI21
aI16
aI18
aI0
aI16
aI19
aI20
aI17
aI16
aI18
aI0
aI16
aI16
aI16
aI16
aI16
aI20
aI0
aI21
aI16
aI19
aI16
aI0
aI16
aI21
aI21
aI21
aI16
aI20
aI21
aI20
aI21
aI19
aI17
aI0
aI21
aI0
aI19
aI18
aI20
aI16
aI0
aI16
aI0
aI16
aI21
aI16
aI16
aI16
aI16
aI21
aI19
aI17
aI21
aI16
aI19
aI18
aI17
aI0
aI17
aI20
aI21
aI16
aI16
aI0
aI16
aI0
aI16
aI21
aI16
aI16
aI16
aI16
aI17
aI16
aI16
aI16
aI16
aI0
aI19
aI0
aI16
aI16
aI20
aI16
aI18
aI19
aI19
aI16
aI16
aI0
aI16
aI21
aI16
aI16
aI16
aI20
aI0
aI0
aI21
aI16
aI21
aI19
aI0
aI16
aI21
aI20
aI0
aI21
aI17
aI16
aI16
aI0
aI21
aI20
aI21
aI19
aI0
aI16
aI16
aI20
aI0
aI21
aI16
aI16
aI0
aI0
aI19
aI16
aI16
aI17
aI21
aI19
aI16
aI20
aI20
aI18
aI17
aI17
aI20
aI0
aI16
aI17
aI21
aI20
aI21
aI21
aI21
aI21
aI18
aI20
aI16
aI21
aI16
aI21
aI19
aI21
aI16
aI16
aI17
aI20
aI16
aI16
aI21
aI16
aI21
aI18
aI21
aI16
aI16
aI0
aI16
aI0
aI20
aI0
aI16
aI16
aI19
aI21
aI16
aI16
aI21
aI16
aI16
aI16
aI16
aI16
aI16
aI18
aI16
aI20
aI19
aI0
aI16
aI16
aI16
aI21
aI16
aI16
aI0
aI21
aI16
aI16
aI0
aI16
aI0
aI17
aI21
aI20
aI0
aI16
aI19
aI16
aI16
aI0
aI0
aI19
aI21
aI0
aI0
aI0
aI0
aI21
aI20
aI21
aI16
aI20
aI20
aI21
aI20
aI20
aI20
aI16
aI16
aI19
aI21
aI21
aI18
aI16
aI21
aI20
aI20
aI16
aI20
aI19
aI20
aI0
aI16
aI20
aI16
aI16
aI18
aI17
aI16
aI21
aI21
aI16
aI18
aI16
aI21
aI0
aI21
aI16
aI0
aI21
aI16
aI21
aI16
aI16
aI19
aI16
aI18
aI0
aI16
aI16
aI16
aI17
aI16
aI16
aI16
aI21
aI16
aI0
aI16
aI19
aI17
aI16
aI16
aI21
aI16
aI16
aI19
aI17
aI20
aI0
aI0
aI16
aI16
aI19
aI16
aI21
aI16
aI19
aI21
aI0
aI21
aI20
aI16
aI21
aI16
aI16
aI16
aI20
aI0
aI0
aI0
aI16
aI21
aI16
aI0
aI16
aI21
aI19
aI0
aI21
aI0
aI16
aI16
aI18
aI0
aI17
aI16
aI19
aI20
aI0
aI16
aI21
aI20
aI21
aI20
aI19
aI0
aI19
aI0
aI18
aI0
aI17
aI21
aI0
aI20
aI21
aI21
aI16
aI20
aI21
aI21
aI19
aI16
aI21
aI0
aI19
aI21
aI0
aI16
aI16
aI16
aI16
aI16
aI21
aI16
aI0
aI20
aI16
aI20
aI17
aI16
aI21
aI19
aI16
aI21
aI0
aI19
aI21
aI16
aI17
aI0
aI16
aI16
aI0
aI0
aI16
aI19
aI21
aI21
aI21
aI0
aI20
aI19
aI20
aI16
aI16
aI0
aI19
aI16
aI19
aI19
aI16
aI20
aI16
aI21
aI19
aI17
aI21
aI17
aI0
aI16
aI16
aI19
aI21
aI21
aI16
aI0
aI16
aI16
aI16
aI19
aI19
aI16
aI0
aI21
aI20
aI20
aI0
aI0
aI21
aI18
aI16
aI19
aI16
aI17
aI0
aI16
aI16
aI16
aI16
aI16
aI20
aI20
aI0
aI16
aI0
aI0
aI21
aI16
aI19
aI0
aI16
aI16
aI0
aI19
aI21
aI16
aI0
aI16
aI20
aI19
aI0
aI19
aI19
aI21
aI19
aI16
aI16
aI16
aI0
aI19
aI16
aI16
aI21
aI0
aI0
aI16
aI16
aI16
aI0
aI16
aI16
aI16
aI21
aI16
aI0
aI16
aI16
aI20
aI16
aI16
aI0
aI16
aI21
aI0
aI0
aI16
aI16
aI16
aI19
aI20
aI16
aI16
aI19
aI16
aI21
aI16
aI20
aI16
aI21
aI20
aI0
aI16
aI16
aI0
aI21
aI21
aI0
aI16
aI16
aI21
aI19
aI16
aI17
aI16
aI21
aI0
aI16
aI21
aI16
aI20
aI18
aI0
aI16
aI16
aI16
aI0
aI16
aI16
aI16
aI21
aI0
aI21
aI0
aI20
aI18
aI16
aI16
aI20
aI0
aI21
aI21
aI20
aI0
aI16
aI16
aI16
aI21
aI18
aI19
aI20
aI16
aI0
aI16
aI16
aI20
aI0
aI21
aI0
aI16
aI16
aI21
aI0
aI21
aI21
aI0
aI0
aI21
aI21
aI21
aI0
aI18
aI20
aI0
aI21
aI16
aI17
aI16
aI16
aI16
aI0
aI0
aI16
aI18
aI17
aI0
aI16
aI16
aI18
aI21
aI16
aI21
aI16
aI21
aI0
aI17
aI0
aI16
aI21
aI18
aI0
aI21
aI19
aI19
aI16
aI16
aI21
aI19
aI16
aI21
aI0
aI16
aI21
aI0
aI21
aI0
aI16
aI0
aI21
aI20
aI16
aI16
aI18
aI20
aI16
aI0
aI16
aI0
aI17
aI0
aI16
aI20
aI16
aI21
aI16
aI19
aI20
aI17
aI20
aI16
aI0
aI16
aI16
aI16
aI0
aI0
aI16
aI16
aI18
aI20
aI16
aI16
aI20
aI16
aI16
aI21
aI17
aI16
aI20
aI21
aI21
aI21
aI16
aI21
aI21
aI20
aI17
aI16
aI21
aI16
aI19
aI17
aI0
aI16
aI0
aI19
aI16
aI21
aI20
aI16
aI19
aI16
aI16
aI19
aI17
aI21
aI20
aI21
aI16
aI16
aI19
aI16
aI0
aI16
aI17
aI0
aI20
aI18
aI16
aI16
aI16
aI0
aI16
aI16
aI17
aI20
aI16
aI17
aI16
aI19
aI21
aI19
aI17
aI16
aI21
aI0
aI19
aI16
aI16
aI0
aI16
aI18
aI0
aI18
aI16
aI19
aI19
aI0
aI21
aI21
aI21
aI16
aI19
aI20
aI21
aI16
aI16
aI0
aI0
aI16
aI21
aI17
aI21
aI19
aI0
aI20
aI16
aI16
aI0
aI21
aI17
aI16
aI16
aI0
aI18
aI19
aI16
aI17
aI16
aI0
aI21
aI16
aI16
aI16
aI16
aI16
aI18
aI20
aI21
aI16
aI16
aI17
aI16
aI19
aI18
aI16
aI19
aI0
aI17
aI16
aI19
aI16
aI16
aI18
aI19
aI16
aI0
aI16
aI17
aI19
aI20
aI18
aI20
aI21
aI16
aI17
aI16
aI0
aI16
aI21
aI21
aI17
aI21
aI21
aI0
aI17
aI20
aI18
aI16
aI16
aI21
aI16
aI0
aI16
aI21
aI20
aI16
aI19
aI16
aI16
aI16
aI17
aI20
aI16
aI16
aI19
aI20
aI19
aI21
aI21
aI19
aI16
aI21
aI0
aI16
aI17
aI0
aI16
aI21
aI21
aI16
aI21
aI0
aI21
aI17
aI16
aI21
aI16
aI16
aI0
aI17
aI21
aI20
aI21
aI17
aI16
aI17
aI16
aI17
aI21
aI20
aI20
aI18
aI21
aI16
aI16
aI21
aI20
aI20
aI17
aI21
aI0
aI0
aI16
aI0
aI20
aI16
aI20
aI16
aI0
aI21
aI16
aI21
aI20
aI18
aI17
aI19
aI20
aI21
aI0
aI16
aI21
aI21
aI16
aI21
aI16
aI0
aI16
aI20
aI21
aI21
aI20
aI16
aI16
aI16
aI17
aI21
aI16
aI16
aI21
aI16
aI19
aI16
aI16
aI21
aI21
aI0
aI21
aI19
aI20
aI16
aI21
aI17
aI16
aI16
aI16
aI20
aI20
aI16
aI21
aI16
aI21
aI16
aI0
aI19
aI0
aI21
aI21
aI19
aI16
aI0
aI16
aI16
aI19
aI21
aI16
aI16
aI21
aI21
aI19
aI20
aI18
aI21
aI21
aI19
aI0
aI16
aI19
aI16
aI16
aI21
aI18
aI16
aI20
aI19
aI19
aI19
aI0
aI18
aI20
aI19
aI16
aI16
aI21
aI16
aI19
aI21
aI0
aI16
aI16
aI0
aI16
aI16
aI16
aI16
aI16
aI21
aI16
aI19
aI19
aI18
aI21
aI0
aI21
aI20
aI21
aI19
aI18
aI21
aI20
aI20
aI20
aI16
aI19
aI19
aI18
aI21
aI21
aI17
aI21
aI0
aI21
aI21
aI21
aI16
aI16
aI0
aI0
aI19
aI16
aI16
aI21
aI19
aI0
aI16
aI21
aI16
aI21
aI16
aI20
aI21
aI21
aI0
aI16
aI20
aI19
aI16
aI0
aI20
aI0
aI19
aI20
aI16
aI21
aI16
aI21
aI16
aI16
aI21
aI17
aI21
aI21
aI21
aI0
aI20
aI21
aI16
aI19
aI21
aI16
aI16
aI16
aI16
aI21
aI0
aI0
aI21
aI0
aI0
aI16
aI16
aI16
aI16
aI19
aI21
aI21
aI20
aI17
aI19
aI18
aI0
aI0
aI16
aI16
aI17
aI21
aI16
aI16
aI18
aI17
aI0
aI0
aI20
aI19
aI16
aI19
aI20
aI19
aI19
aI20
aI0
aI0
aI18
aI16
aI19
aI16
aI16
aI21
aI0
aI0
aI21
aI21
aI0
aI0
aI21
aI20
aI21
aI18
aI0
aI21
aI18
aI0
aI16
aI21
aI18
aI18
aI21
aI0
aI0
aI0
aI21
aI19
aI16
aI21
aI21
aI20
aI16
aI21
aI0
aI0
aI16
aI18
aI21
aI20
aI21
aI16
aI16
aI0
aI16
aI20
aI16
aI17
aI16
aI17
aI16
aI16
aI0
aI0
aI0
aI20
aI17
aI19
aI21
aI18
aI0
aI20
aI17
aI16
aI21
aI19
aI16
aI19
aI0
aI0
aI20
aI21
aI16
aI0
aI17
aI19
aI21
aI21
aI19
aI16
aI16
aI21
aI16
aI17
aI17
aI16
aI16
aI19
aI17
aI21
aI16
aI21
aI18
aI16
aI21
aI21
aI16
aI16
aI0
aI16
aI0
aI0
aI0
aI20
aI0
aI20
aI20
aI21
aI16
aI16
aI16
aI16
aI21
aI20
aI21
aI21
aI20
aI18
aI21
aI17
aI19
aI21
aI0
aI17
aI0
aI20
aI21
aI16
aI16
aI21
aI16
aI16
aI0
aI0
aI16
aI17
aI16
aI21
aI18
aI17
aI16
aI0
aI0
aI16
aI19
aI19
aI0
aI16
aI19
aI16
aI19
aI0
aI19
aI0
aI16
aI16
aI16
aI16
aI0
aI17
aI17
aI17
aI19
aI17
aI16
aI16
aI20
aI19
aI20
aI19
aI21
aI21
aI20
aI16
aI21
aI16
aI16
aI16
aI0
aI17
aI20
aI21
aI21
aI20
aI20
aI16
aI18
aI16
aI19
aI21
aI16
aI0
aI17
aI20
aI20
aI18
aI16
aI21
aI19
aI17
aI16
aI16
aI21
aI19
aI17
aI18
aI18
aI21
aI16
aI0
aI21
aI18
aI16
aI19
aI16
aI16
aI0
aI0
aI16
aI0
aI0
aI17
aI0
aI17
aI17
aI0
aI17
aI21
aI0
aI16
aI16
aI21
aI16
aI20
aI19
aI0
aI0
aI19
aI21
aI21
aI0
aI16
aI17
aI16
aI16
aI0
aI19
aI16
aI16
aI20
aI16
aI20
aI0
aI19
aI0
aI20
aI0
aI21
aI0
aI19
aI16
aI21
aI16
aI0
aI0
aI16
aI0
aI19
aI16
aI18
aI19
aI21
aI16
aI21
aI20
aI18
aI16
aI16
aI0
aI21
aI20
aI16
aI16
aI16
aI17
aI6
aI16
aI16
aI16
aI16
aI19
aI16
aI21
aI21
aI0
aI19
aI16
aI0
aI0
aI0
aI0
aI16
aI19
aI16
aI19
aI21
aI16
aI19
aI16
aI17
aI16
aI16
aI16
aI16
aI16
aI21
aI16
aI21
aI16
aI16
aI16
aI21
aI0
aI16
aI16
aI16
aI21
aI21
aI19
aI16
aI20
aI17
aI16
aI16
aI16
aI0
aI16
aI16
aI0
aI21
aI0
aI16
aI21
aI21
aI16
aI16
aI21
aI16
aI21
aI20
aI0
aI16
aI18
aI21
aI17
aI20
aI16
aI16
aI20
aI16
aI16
aI20
aI16
aI19
aI16
aI16
aI16
aI0
aI16
aI0
aI18
aI0
aI16
aI0
aI21
aI16
aI16
aI0
aI0
aI21
aI21
aI16
aI19
aI17
aI21
aI0
aI16
aI19
aI16
aI17
aI16
aI16
aI20
aI16
aI16
aI16
aI16
aI21
aI21
aI0
aI0
aI1
aI20
aI17
aI20
aI21
aI0
aI19
aI17
aI20
aI21
aI19
aI16
aI21
aI0
aI19
aI21
aI16
aI20
aI16
aI20
aI20
aI19
aI16
aI16
aI16
aI16
aI19
aI16
aI0
aI16
aI20
aI19
aI21
aI17
aI21
aI21
aI20
aI21
aI16
aI20
aI21
aI18
aI20
aI16
aI16
aI16
aI16
aI20
aI16
aI16
aI19
aI0
aI21
aI16
aI0
aI17
aI21
aI0
aI16
aI19
aI21
aI0
aI16
aI16
aI20
aI18
aI16
aI0
aI16
aI18
aI19
aI0
aI16
aI21
aI20
aI16
aI21
aI21
aI16
aI0
aI0
aI16
aI18
aI16
aI17
aI20
aI18
aI16
aI16
aI0
aI19
aI16
aI16
aI16
aI16
aI20
aI20
aI16
aI16
aI16
aI0
aI20
aI0
aI0
aI21
aI18
aI17
aI20
aI0
aI16
aI21
aI21
aI19
aI20
aI19
aI16
aI16
aI21
aI16
aI0
aI16
aI20
aI0
aI16
aI16
aI20
aI16
aI19
aI17
aI16
aI18
aI18
aI0
aI16
aI16
aI16
aI21
aI19
aI0
aI16
aI16
aI0
aI19
aI17
aI21
aI19
aI17
aI16
aI16
aI16
aI0
aI18
aI16
aI16
aI0
aI21
aI0
aI19
aI19
aI21
aI19
aI0
aI18
aI19
aI19
aI21
aI16
aI0
aI20
aI19
aI0
aI16
aI16
aI16
aI0
aI17
aI20
aI16
aI0
aI16
aI19
aI0
aI16
aI0
aI16
aI21
aI0
aI0
aI16
aI16
aI16
aI16
aI0
aI16
aI19
aI17
aI16
aI16
aI18
aI16
aI16
aI20
aI18
aI17
aI21
aI21
aI17
aI0
aI16
aI21
aI21
aI20
aI21
aI16
aI16
aI16
aI16
aI16
aI17
aI21
aI20
aI0
aI19
aI19
aI19
aI0
aI20
aI16
aI0
aI16
aI0
aI16
aI21
aI21
aI20
aI18
aI21
aI0
aI18
aI16
aI19
aI18
aI19
aI0
aI0
aI17
aI19
aI0
aI20
aI16
aI0
aI16
aI0
aI16
aI0
aI16
aI0
aI0
aI19
aI17
aI21
aI16
aI16
aI19
aI20
aI0
aI0
aI19
aI16
aI21
aI16
aI21
aI17
aI0
aI16
aI0
aI21
aI16
aI20
aI16
aI16
aI20
aI21
aI19
aI16
aI16
aI19
aI21
aI16
aI16
aI17
aI16
aI16
aI19
aI19
aI16
aI17
aI18
aI16
aI16
aI16
aI16
aI16
aI19
aI0
aI16
aI16
aI19
aI20
aI16
aI16
aI16
aI0
aI16
aI21
aI0
aI0
aI16
aI16
aI0
aI21
aI16
aI19
aI16
aI20
aI21
aI19
aI21
aI20
aI16
aI0
aI20
aI16
aI19
aI16
aI0
aI21
aI16
aI21
aI16
aI16
aI21
aI16
aI19
aI16
aI0
aI16
aI17
aI0
aI16
aI21
aI16
aI0
aI16
aI16
aI21
aI21
aI21
aI19
aI17
aI16
aI0
aI21
aI19
aI19
aI19
aI16
aI19
aI0
aI0
aI21
aI16
aI16
aI21
aI16
aI16
aI0
aI0
aI0
aI16
aI21
aI20
aI19
aI16
aI17
aI21
aI16
aI16
aI21
aI7
aI21
aI19
aI21
aI18
aI20
aI16
aI16
aI16
aI21
aI17
aI21
aI16
aI20
aI16
aI19
aI0
aI16
aI0
aI21
aI21
aI16
aI16
aI19
aI21
aI21
aI20
aI0
aI0
aI20
aI0
aI0
aI21
aI16
aI18
aI21
aI16
aI20
aI16
aI18
aI20
aI21
aI20
aI18
aI0
aI16
aI0
aI19
aI20
aI16
aI17
aI16
aI17
aI16
aI17
aI21
aI0
aI20
aI16
aI21
aI0
aI19
aI18
aI20
aI0
aI21
aI20
aI0
aI17
aI21
aI0
aI19
aI17
aI16
aI17
aI16
aI21
aI20
aI16
aI19
aI16
aI19
aI16
aI21
aI21
aI0
aI0
aI21
aI20
aI16
aI16
aI16
aI20
aI0
aI16
aI21
aI16
aI16
aI16
aI21
aI19
aI0
aI16
aI0
aI0
aI19
aI21
aI20
aI0
aI20
aI0
aI0
aI16
aI19
aI0
aI0
aI21
aI21
aI21
aI19
aI16
aI16
aI16
aI16
aI16
aI21
aI16
aI16
aI21
aI18
aI17
aI21
aI16
aI16
aI16
aI20
aI0
aI18
aI21
aI16
aI19
aI0
aI16
aI16
aI17
aI16
aI17
aI17
aI16
aI16
aI16
aI0
aI0
aI17
aI21
aI21
aI0
aI21
aI16
aI20
aI19
aI0
aI19
aI21
aI18
aI16
aI16
aI0
aI0
aI16
aI19
aI0
aI20
aI18
aI18
aI16
aI16
aI21
aI19
aI16
aI17
aI16
aI16
aI16
aI19
aI20
aI16
aI0
aI17
aI16
aI19
aI19
aI21
aI0
aI18
aI16
aI21
aI20
aI16
aI0
aI0
aI21
aI0
aI21
aI0
aI21
aI0
aI21
aI0
aI16
aI0
aI16
aI18
aI16
aI19
aI19
aI16
aI0
aI19
aI16
aI21
aI16
aI20
aI16
aI21
aI0
aI16
aI16
aI16
aI21
aI0
aI0
aI20
aI18
aI16
aI16
aI16
aI0
aI16
aI17
aI16
aI16
aI21
aI21
aI20
aI16
aI16
aI19
aI19
aI16
aI16
aI16
aI21
aI16
aI19
aI16
aI0
aI16
aI16
aI20
aI16
aI17
aI0
aI0
aI16
aI21
aI0
aI0
aI21
aI19
aI17
aI20
aI17
aI0
aI20
aI16
aI16
aI21
aI0
aI16
aI0
aI16
aI21
aI17
aI20
aI16
aI16
aI20
aI16
aI0
aI21
aI16
aI20
aI21
aI17
aI19
aI16
aI19
aI16
aI16
aI16
aI19
aI0
aI16
aI21
aI21
aI0
aI16
aI16
aI20
aI21
aI20
aI17
aI19
aI17
aI0
aI16
aI21
aI20
aI0
aI20
aI16
aI16
aI20
aI21
aI16
aI20
aI18
aI17
aI21
aI16
aI17
aI20
aI16
aI16
aI0
aI21
aI16
aI0
aI16
aI21
aI0
aI0
aI21
aI0
aI16
aI0
aI0
aI19
aI21
aI16
aI0
aI18
aI19
aI18
aI21
aI19
aI16
aI16
aI16
aI16
aI21
aI16
aI16
aI16
aI16
aI21
aI0
aI0
aI0
aI16
aI20
aI16
aI21
aI21
aI21
aI16
aI16
aI20
aI16
aI16
aI17
aI20
aI21
aI20
aI0
aI20
aI16
aI17
aI21
aI18
aI16
aI0
aI20
aI16
aI16
aI16
aI0
aI21
aI0
aI21
aI20
aI21
aI19
aI21
aI16
aI20
aI16
aI21
aI16
aI17
aI0
aI0
aI16
aI16
aI0
aI16
aI16
aI18
aI0
aI21
aI16
aI16
aI0
aI21
aI21
aI16
aI16
aI16
aI0
aI0
aI17
aI17
aI21
aI20
aI0
aI0
aI17
aI0
aI21
aI16
aI0
aI20
aI16
aI0
aI16
aI0
aI19
aI20
aI20
aI16
aI0
aI17
aI16
aI16
aI0
aI20
aI0
aI16
aI0
aI21
aI16
aI19
aI0
aI0
aI19
aI21
aI16
aI20
aI16
aI21
aI19
aI21
aI20
aI16
aI20
aI0
aI16
aI19
aI17
aI21
aI21
aI0
aI16
aI0
aI17
aI16
aI19
aI18
aI0
aI19
aI19
aI21
aI19
aI16
aI20
aI21
aI0
aI20
aI16
aI21
aI18
aI0
aI17
aI0
aI21
aI16
aI0
aI16
aI0
aI21
aI16
aI20
aI16
aI21
aI20
aI0
aI21
aI0
aI16
aI16
aI17
aI16
aI16
aI16
aI16
aI20
aI16
aI19
aI0
aI16
aI19
aI0
aI21
aI18
aI0
aI16
aI19
aI17
aI19
aI17
aI21
aI16
aI16
aI21
aI21
aI21
aI0
aI16
aI16
aI16
aI21
aI21
aI16
aI0
aI16
aI16
aI20
aI21
aI21
aI19
aI0
aI16
aI0
aI21
aI21
aI17
aI16
aI18
aI0
aI0
aI0
aI16
aI0
aI21
aI16
aI16
aI16
aI17
aI16
aI21
aI0
aI19
aI16
aI19
aI16
aI0
aI18
aI0
aI17
aI0
aI19
aI0
aI16
aI21
aI16
aI17
aI19
aI0
aI20
aI0
aI21
aI18
aI16
aI16
aI19
aI17
aI16
aI21
aI0
aI0
aI16
aI16
aI21
aI17
aI0
aI0
aI16
aI20
aI16
aI18
aI18
aI0
aI19
aI16
aI21
aI21
aI18
aI0
aI16
aI0
aI0
aI20
aI16
aI19
aI21
aI0
aI0
aI16
aI16
aI0
aI16
aI16
aI0
aI16
aI17
aI21
aI7
aI21
aI21
aI16
aI19
aI21
aI21
aI20
aI19
aI20
aI21
aI16
aI17
aI20
aI17
aI16
aI21
aI16
aI16
aI21
aI18
aI16
aI8
aI17
aI21
aI19
aI16
aI16
aI20
aI20
aI0
aI16
aI21
aI21
aI0
aI19
aI16
aI0
aI16
aI18
aI16
aI16
aI16
aI16
aI0
aI16
aI0
aI21
aI19
aI21
aI16
aI16
aI16
aI21
aI18
aI0
aI21
aI16
aI16
aI20
aI17
aI19
aI0
aI19
aI19
aI20
aI17
aI0
aI21
aI18
aI21
aI18
aI21
aI0
aI16
aI0
aI16
aI18
aI19
aI0
aI0
aI16
aI16
aI16
aI21
aI16
aI16
aI21
aI17
aI0
aI16
aI19
aI16
aI20
aI21
aI0
aI20
aI16
aI0
aI17
aI20
aI16
aI20
aI19
aI16
aI19
aI20
aI21
aI19
aI0
aI0
aI16
aI16
aI0
aI21
aI16
aI0
aI21
aI20
aI16
aI16
aI21
aI21
aI16
aI21
aI16
aI16
aI17
aI21
aI16
aI21
aI16
aI16
aI20
aI21
aI0
aI21
aI21
aI0
aI16
aI16
aI0
aI16
aI18
aI17
aI0
aI20
aI0
aI21
aI18
aI0
aI19
aI0
aI19
aI16
aI16
aI16
aI21
aI21
aI0
aI0
aI16
aI16
aI0
aI21
aI0
aI16
aI16
aI21
aI21
aI21
aI16
aI19
aI21
aI16
aI16
aI19
aI17
aI0
aI21
aI0
aI16
aI16
aI19
aI16
aI17
aI16
aI16
aI21
aI16
aI16
aI19
aI17
aI0
aI20
aI18
aI19
aI0
aI16
aI0
aI0
aI0
aI21
aI19
aI19
aI0
aI18
aI20
aI0
aI17
aI16
aI17
aI21
aI19
aI0
aI18
aI16
aI16
aI17
aI16
aI21
aI19
aI21
aI16
aI19
aI19
aI0
aI16
aI16
aI0
aI16
aI21
aI21
aI21
aI21
aI21
aI19
aI16
aI0
aI0
aI16
aI16
aI17
aI16
aI0
aI20
aI21
aI16
aI21
aI16
aI20
aI0
aI0
aI18
aI16
aI20
aI21
aI16
aI0
aI16
aI16
aI21
aI16
aI21
aI16
aI0
aI16
aI16
aI19
aI17
aI0
aI16
aI21
aI20
aI16
aI19
aI21
aI16
aI21
aI16
aI0
aI0
aI21
aI17
aI18
aI21
aI16
aI20
aI17
aI20
aI0
aI16
aI16
aI0
aI18
aI0
aI16
aI16
aI21
aI16
aI0
aI16
aI20
aI17
aI16
aI20
aI21
aI0
aI16
aI18
aI19
aI19
aI16
aI16
aI21
aI16
aI16
aI20
aI21
aI16
aI0
aI16
aI19
aI0
aI21
aI17
aI19
aI19
aI18
aI0
aI17
aI16
aI16
aI17
aI17
aI16
aI0
aI16
aI16
aI16
aI19
aI21
aI20
aI16
aI20
aI0
aI16
aI19
aI19
aI21
aI21
aI0
aI16
aI0
aI0
aI16
aI0
aI16
aI19
aI16
aI16
aI16
aI17
aI20
aI20
aI21
aI21
aI17
aI21
aI19
aI19
aI21
aI0
aI0
aI21
aI0
aI20
aI16
aI21
aI0
aI17
aI0
aI21
aI0
aI16
aI17
aI16
aI16
aI16
aI19
aI16
aI20
aI21
aI16
aI0
aI20
aI21
aI0
aI16
aI0
aI0
aI17
aI19
aI17
aI16
aI16
aI16
aI21
aI16
aI16
aI0
aI16
aI20
aI0
aI21
aI19
aI0
aI21
aI16
aI18
aI21
aI0
aI21
aI20
aI19
aI16
aI16
aI0
aI16
aI16
aI19
aI19
aI19
aI16
aI16
aI21
aI20
aI20
aI19
aI20
aI16
aI20
aI18
aI16
aI20
aI0
aI20
aI21
aI20
aI0
aI21
aI19
aI18
aI0
aI19
aI0
aI16
aI16
aI16
aI21
aI19
aI21
aI0
aI0
aI16
aI2
aI20
aI16
aI16
aI0
aI19
aI16
aI16
aI20
aI0
aI16
aI21
aI16
aI19
aI0
aI0
aI19
aI21
aI16
aI16
aI18
aI16
aI16
aI21
aI0
aI21
aI16
aI19
aI17
aI0
aI16
aI16
aI0
aI0
aI21
aI20
aI17
aI16
aI0
aI19
aI16
aI16
aI16
aI0
aI17
aI0
aI17
aI16
aI16
aI0
aI21
aI19
aI0
aI0
aI17
aI16
aI0
aI0
aI16
aI18
aI21
aI16
aI0
aI0
aI21
aI19
aI18
aI21
aI16
aI17
aI20
aI16
aI0
aI19
aI21
aI0
aI16
aI19
aI17
aI16
aI21
aI16
aI16
aI17
aI16
aI0
aI0
aI17
aI21
aI20
aI16
aI20
aI16
aI21
aI17
aI17
aI21
aI16
aI16
aI0
aI0
aI20
aI16
aI16
aI16
aI20
aI0
aI21
aI16
aI16
aI16
aI16
aI21
aI0
aI21
aI16
aI16
aI20
aI0
aI20
aI21
aI16
aI16
aI21
aI21
aI0
aI19
aI0
aI19
aI16
aI0
aI16
aI16
aI21
aI21
aI17
aI16
aI19
aI21
aI0
aI0
aI0
aI0
aI16
aI0
aI17
aI21
aI16
aI19
aI18
aI16
aI0
aI16
aI21
aI19
aI20
aI19
aI21
aI20
aI16
aI16
aI16
aI19
aI16
aI0
aI19
aI16
aI17
aI16
aI21
aI20
aI0
aI16
aI16
aI18
aI21
aI0
aI17
aI17
aI16
aI17
aI0
aI0
aI16
aI16
aI16
aI20
aI21
aI19
aI20
aI0
aI0
aI20
aI21
aI17
aI17
aI16
aI21
aI16
aI16
aI21
aI18
aI0
aI17
aI16
aI0
aI19
aI16
aI21
aI16
aI16
aI19
aI19
aI0
aI16
aI16
aI16
aI18
aI16
aI16
aI21
aI16
aI0
aI21
aI16
aI0
aI20
aI21
aI16
aI0
aI0
aI19
aI16
aI21
aI20
aI17
aI16
aI0
aI21
aI21
aI20
aI16
aI16
aI16
aI16
aI21
aI20
aI21
aI18
aI16
aI16
aI20
aI20
aI16
aI20
aI16
aI19
aI17
aI21
aI18
aI18
aI16
aI19
aI21
aI21
aI17
aI18
aI21
aI16
aI16
aI0
aI0
aI16
aI20
aI21
aI19
aI19
aI21
aI16
aI0
aI18
aI16
aI16
aI20
aI16
aI16
aI20
aI0
aI16
aI16
aI19
aI19
aI16
aI19
aI19
aI16
aI21
aI0
aI16
aI18
aI21
aI21
aI0
aI20
aI16
aI0
aI19
aI16
aI19
aI21
aI20
aI16
aI0
aI19
aI0
aI16
aI21
aI4
aI16
aI16
aI0
aI16
aI16
aI19
aI16
aI19
aI0
aI0
aI21
aI0
aI0
aI16
aI21
aI19
aI16
aI21
aI21
aI16
aI16
aI21
aI16
aI0
aI0
aI18
aI16
aI0
aI18
aI16
aI0
aI16
aI20
aI16
aI20
aI16
aI16
aI18
aI17
aI18
aI21
aI0
aI20
aI19
aI16
aI16
aI0
aI16
aI19
aI0
aI18
aI20
aI0
aI16
aI16
aI18
aI0
aI19
aI20
aI20
aI0
aI19
aI0
aI0
aI16
aI19
aI19
aI19
aI16
aI21
aI17
aI0
aI16
aI20
aI21
aI16
aI19
aI0
aI0
aI16
aI19
aI20
aI19
aI16
aI16
aI16
aI19
aI16
aI21
aI16
aI19
aI21
aI16
aI20
aI17
aI16
aI21
aI17
aI21
aI16
aI21
aI18
aI21
aI21
aI20
aI19
aI21
aI16
aI20
aI0
aI16
aI21
aI21
aI19
aI20
aI21
aI21
aI0
aI16
aI20
aI16
aI0
aI16
aI16
aI16
aI0
aI16
aI20
aI16
aI16
aI20
aI0
aI21
aI16
aI17
aI21
aI16
aI16
aI20
aI21
aI16
aI20
aI0
aI21
aI16
aI18
aI17
aI19
aI16
aI16
aI16
aI17
aI16
aI16
aI16
aI17
aI21
aI16
aI18
aI21
aI0
aI4
aI0
aI19
aI16
aI20
aI21
aI21
aI16
aI21
aI0
aI20
aI19
aI17
aI21
aI19
aI9
aI16
aI19
aI21
aI16
aI16
aI21
aI16
aI0
aI20
aI16
aI21
aI16
aI16
aI19
aI20
aI21
aI21
aI19
aI17
aI16
aI0
aI16
aI0
aI16
aI17
aI16
aI16
aI0
aI21
aI21
aI16
aI16
aI0
aI21
aI16
aI20
aI21
aI21
aI21
aI16
aI0
aI21
aI16
aI0
aI16
aI0
aI0
aI16
aI21
aI16
aI0
aI0
aI21
aI16
aI10
aI0
aI16
aI16
aI21
aI0
aI16
aI21
aI21
aI19
aI16
aI16
aI21
aI16
aI0
aI21
aI0
aI16
aI0
aI21
aI21
aI18
aI16
aI21
aI0
aI16
aI21
aI19
aI17
aI16
aI18
aI21
aI19
aI16
aI16
aI16
aI0
aI16
aI20
aI19
aI16
aI16
aI16
aI20
aI16
aI16
aI0
aI19
aI19
aI16
aI20
aI20
aI16
aI17
aI0
aI21
aI18
aI16
aI0
aI17
aI16
aI16
aI19
aI21
aI21
aI16
aI21
aI16
aI0
aI16
aI21
aI20
aI17
aI19
aI20
aI0
aI18
aI16
aI16
aI21
aI18
aI0
aI18
aI18
aI20
aI21
aI16
aI0
aI17
aI21
aI20
aI0
aI19
aI0
aI17
aI21
aI19
aI16
aI21
aI16
aI18
aI16
aI21
aI20
aI17
aI20
aI21
aI17
aI16
aI17
aI16
aI16
aI16
aI0
aI16
aI16
aI0
aI17
aI0
aI18
aI16
aI16
aI21
aI20
aI16
aI21
aI16
aI16
aI0
aI16
aI16
aI16
aI16
aI16
aI0
aI16
aI20
aI16
aI16
aI19
aI21
aI16
aI16
aI21
aI19
aI16
aI16
aI19
aI16
aI16
aI21
aI16
aI0
aI16
aI16
aI16
aI16
aI19
aI16
aI16
aI0
aI0
aI16
aI21
aI16
aI20
aI21
aI16
aI20
aI16
aI0
aI19
aI20
aI19
aI19
aI20
aI16
aI18
aI16
aI16
aI18
aI0
aI16
aI21
aI21
aI20
aI0
aI16
aI0
aI16
aI16
aI20
aI19
aI19
aI21
aI19
aI20
aI21
aI21
aI0
aI18
aI21
aI20
aI19
aI16
aI16
aI0
aI16
aI16
aI0
aI0
aI17
aI18
aI21
aI0
aI0
aI20
aI19
aI21
aI16
aI21
aI0
aI20
aI16
aI21
aI20
aI0
aI20
aI0
aI0
aI16
aI0
aI21
aI0
aI0
aI16
aI0
aI16
aI21
aI21
aI16
aI0
aI16
aI21
aI19
aI20
aI16
aI19
aI16
aI0
aI20
aI19
aI0
aI0
aI0
aI17
aI16
aI16
aI21
aI19
aI0
aI16
aI20
aI21
aI16
aI16
aI19
aI16
aI16
aI21
aI0
aI19
aI16
aI16
aI20
aI16
aI0
aI20
aI0
aI0
aI16
aI19
aI21
aI16
aI21
aI16
aI16
aI0
aI21
aI17
aI17
aI16
aI0
aI17
aI0
aI16
aI21
aI16
aI21
aI16
aI16
aI16
aI16
aI21
aI20
aI19
aI16
aI16
aI20
aI21
aI20
aI21
aI0
aI18
aI21
aI21
aI20
aI16
aI20
aI21
aI16
aI21
aI18
aI0
aI16
aI16
aI20
aI16
aI21
aI20
aI17
aI16
aI21
aI18
aI16
aI19
aI21
aI19
aI16
aI16
aI21
aI0
aI19
aI16
aI16
aI21
aI19
aI16
aI16
aI16
aI16
aI16
aI19
aI0
aI0
aI0
aI21
aI16
aI0
aI0
aI16
aI16
aI16
aI16
aI19
aI0
aI16
aI16
aI0
aI21
aI16
aI16
aI0
aI20
aI17
aI16
aI21
aI21
aI0
aI16
aI21
aI0
aI16
aI20
aI16
aI20
aI16
aI21
aI21
aI16
aI0
aI19
aI0
aI0
aI16
aI21
aI21
aI21
aI16
aI17
aI16
aI16
aI21
aI21
aI16
aI18
aI0
aI0
aI20
aI16
aI0
aI17
aI20
aI0
aI16
aI20
aI0
aI20
aI0
aI21
aI16
aI17
aI20
aI16
aI16
aI0
aI16
aI16
aI17
aI18
aI16
aI0
aI18
aI17
aI20
aI16
aI21
aI16
aI20
aI18
aI16
aI16
aI21
aI16
aI21
aI21
aI20
aI21
aI20
aI18
aI0
aI0
aI0
aI21
aI16
aI16
aI16
aI19
aI16
aI16
aI19
aI16
aI19
aI16
aI16
aI0
aI21
aI19
aI0
aI21
aI0
aI16
aI16
aI16
aI18
aI21
aI16
aI20
aI20
aI18
aI21
aI16
aI0
aI0
aI0
aI16
aI16
aI18
aI16
aI21
aI0
aI16
aI16
aI21
aI20
aI16
aI16
aI21
aI16
aI16
aI16
aI19
aI20
aI16
aI16
aI16
aI16
aI17
aI21
aI21
aI18
aI0
aI0
aI0
aI16
aI21
aI17
aI0
aI0
aI20
aI17
aI16
aI0
aI16
aI16
aI20
aI17
aI21
aI16
aI21
aI0
aI19
aI16
aI21
aI20
aI20
aI0
aI19
aI21
aI16
aI16
aI16
aI18
aI20
aI21
aI19
aI21
aI16
aI21
aI20
aI16
aI20
aI16
aI21
aI16
aI21
aI16
aI21
aI0
aI21
aI21
aI21
aI16
aI17
aI21
aI19
aI21
aI16
aI16
aI17
aI16
aI16
aI16
aI20
aI21
aI21
aI0
aI16
aI20
aI21
aI20
aI18
aI20
aI20
aI17
aI16
aI21
aI20
aI19
aI0
aI16
aI16
aI18
aI16
aI16
aI16
aI19
aI0
aI17
aI20
aI16
aI21
aI17
aI16
aI20
aI19
aI0
aI16
aI0
aI16
aI21
aI16
aI16
aI20
aI0
aI16
aI21
aI19
aI16
aI16
aI16
aI19
aI21
aI19
aI20
aI20
aI0
aI16
aI16
aI18
aI16
aI16
aI16
aI19
aI21
aI16
aI21
aI16
aI16
aI16
aI0
aI21
aI16
aI16
aI20
aI16
aI20
aI16
aI0
aI16
aI16
aI0
aI19
aI0
aI0
aI0
aI21
aI21
aI20
aI19
aI20
aI0
aI16
aI16
aI20
aI0
aI21
aI16
aI16
aI17
aI16
aI16
aI19
aI18
aI17
aI21
aI16
aI16
aI21
aI16
aI20
aI16
aI16
aI18
aI16
aI16
aI19
aI21
aI20
aI18
aI0
aI20
aI16
aI19
aI17
aI16
aI0
aI19
aI0
aI16
aI21
aI0
aI16
aI0
aI16
aI16
aI16
aI20
aI16
aI19
aI16
aI0
aI16
aI16
aI21
aI16
aI21
aI21
aI16
aI16
aI16
aI16
aI16
aI16
aI20
aI16
aI17
aI16
aI16
aI21
aI16
aI19
aI21
aI16
aI16
aI21
aI18
aI16
aI18
aI16
aI0
aI19
aI16
aI18
aI20
aI17
aI21
aI20
aI0
aI21
aI16
aI0
aI16
aI17
aI16
aI16
aI19
aI21
aI21
aI16
aI16
aI21
aI16
aI0
aI16
aI16
aI0
aI16
aI16
aI0
aI16
aI21
aI18
aI18
aI16
aI21
aI21
aI16
aI17
aI19
aI16
aI16
aI0
aI16
aI16
aI16
aI0
aI16
aI20
aI21
aI16
aI0
aI0
aI16
aI16
aI19
aI16
aI16
aI16
aI19
aI0
aI19
aI17
aI20
aI16
aI17
aI20
aI0
aI21
aI0
aI0
aI19
aI0
aI0
aI19
aI16
aI0
aI16
aI17
aI20
aI16
aI21
aI16
aI19
aI21
aI17
aI16
aI0
aI0
aI20
aI0
aI16
aI21
aI20
aI16
aI0
aI21
aI20
aI17
aI16
aI19
aI21
aI16
aI0
aI16
aI16
aI20
aI20
aI16
aI21
aI16
aI20
aI20
aI16
aI20
aI20
aI16
aI0
aI17
aI0
aI21
aI0
aI20
aI16
aI21
aI0
aI0
aI16
aI20
aI21
aI16
aI19
aI21
aI16
aI21
aI21
aI17
aI21
aI16
aI20
aI0
aI0
aI18
aI21
aI20
aI0
aI0
aI0
aI0
aI16
aI20
aI0
aI0
aI16
aI21
aI20
aI0
aI16
aI17
aI16
aI0
aI11
aI19
aI21
aI16
aI21
aI21
aI19
aI16
aI19
aI16
aI18
aI16
aI21
aI18
aI21
aI16
aI21
aI0
aI16
aI16
aI0
aI20
aI0
aI16
aI21
aI16
aI19
aI16
aI21
aI16
aI16
aI16
aI19
aI16
aI0
aI18
aI17
aI20
aI19
aI0
aI19
aI21
aI16
aI17
aI19
aI21
aI0
aI0
aI19
aI16
aI16
aI0
aI20
aI17
aI0
aI16
aI0
aI20
aI18
aI16
aI21
aI16
aI0
aI16
aI21
aI20
aI21
aI16
aI16
aI16
aI21
aI19
aI20
aI16
aI19
aI17
aI16
aI16
aI16
aI16
aI0
aI21
aI19
aI16
aI20
aI0
aI21
aI16
aI0
aI18
aI21
aI16
aI20
aI16
aI21
aI0
aI0
aI16
aI21
aI16
aI21
aI0
aI19
aI19
aI19
aI16
aI16
aI19
aI16
aI16
aI19
aI16
aI0
aI21
aI0
aI0
aI21
aI20
aI16
aI18
aI20
aI16
aI0
aI20
aI16
aI20
aI20
aI0
aI18
aI0
aI17
aI16
aI21
aI16
aI21
aI16
aI21
aI20
aI0
aI16
aI16
aI21
aI0
aI0
aI16
aI20
aI16
aI19
aI0
aI21
aI16
aI19
aI16
aI0
aI20
aI20
aI16
aI21
aI20
aI0
aI16
aI20
aI21
aI16
aI0
aI0
aI21
aI16
aI0
aI18
aI0
aI16
aI19
aI16
aI21
aI20
aI21
aI0
aI21
aI16
aI18
aI16
aI16
aI16
aI16
aI16
aI21
aI16
aI16
aI0
aI21
aI18
aI17
aI0
aI19
aI16
aI17
aI16
aI16
aI19
aI16
aI16
aI21
aI0
aI19
aI0
aI16
aI16
aI21
aI16
aI20
aI0
aI16
aI0
aI17
aI17
aI16
aI16
aI16
aI21
aI21
aI20
aI20
aI0
aI21
aI16
aI16
aI16
aI16
aI21
aI21
aI21
aI17
aI19
aI16
aI16
aI20
aI18
aI0
aI16
aI17
aI21
aI16
aI21
aI0
aI0
aI16
aI21
aI16
aI16
aI21
aI16
aI21
aI0
aI16
aI16
aI18
aI0
aI16
aI16
aI0
aI19
aI0
aI16
aI21
aI21
aI0
aI16
aI21
aI21
aI16
aI21
aI20
aI17
aI16
aI18
aI16
aI0
aI0
aI16
aI16
aI21
aI16
aI0
aI16
aI20
aI17
aI21
aI19
aI16
aI21
aI19
aI20
aI16
aI19
aI16
aI21
aI0
aI19
aI20
aI18
aI16
aI21
aI0
aI19
aI21
aI16
aI16
aI21
aI16
aI16
aI0
aI20
aI17
aI16
aI20
aI20
aI16
aI16
aI20
aI20
aI16
aI16
aI0
aI16
aI21
aI0
aI17
aI19
aI16
aI16
aI0
aI4
aI19
aI16
aI21
aI0
aI0
aI0
aI21
aI21
aI16
aI21
aI16
aI17
aI16
aI18
aI21
aI18
aI20
aI0
aI16
aI21
aI0
aI20
aI16
aI19
aI18
aI16
aI19
aI16
aI16
aI19
aI0
aI21
aI0
aI21
aI21
aI16
aI21
aI19
aI16
aI20
aI16
aI21
aI19
aI18
aI16
aI16
aI19
aI16
aI0
aI18
aI19
aI20
aI0
aI21
aI20
aI0
aI0
aI17
aI16
aI16
aI17
aI20
aI0
aI16
aI16
aI21
aI16
aI16
aI16
aI19
aI21
aI16
aI16
aI0
aI0
aI0
aI0
aI21
aI19
aI16
aI21
aI19
aI0
aI16
aI16
aI16
aI21
aI17
aI16
aI16
aI18
aI19
aI16
aI19
aI16
aI16
aI20
aI0
aI16
aI0
aI21
aI16
aI21
aI20
aI20
aI21
aI0
aI21
aI16
aI17
aI21
aI21
aI21
aI16
aI16
aI20
aI0
aI0
aI19
aI17
aI21
aI21
aI0
aI19
aI19
aI0
aI20
aI16
aI16
aI16
aI16
aI17
aI21
aI21
aI16
aI17
aI0
aI16
aI17
aI18
aI16
aI16
aI17
aI18
aI20
aI16
aI21
aI16
aI16
aI19
aI0
aI16
aI20
aI17
aI16
aI17
aI16
aI19
aI21
aI16
aI16
aI21
aI19
aI16
aI19
aI16
aI21
aI18
aI16
aI20
aI16
aI17
aI19
aI21
aI19
aI18
aI21
aI16
aI16
aI16
aI16
aI16
aI16
aI16
aI18
aI20
aI0
aI16
aI19
aI0
aI0
aI16
aI21
aI21
aI16
aI19
aI16
aI19
aI17
aI21
aI16
aI17
aI21
aI0
aI19
aI0
aI16
aI16
aI21
aI0
aI16
aI21
aI16
aI16
aI21
aI16
aI16
aI20
aI0
aI16
aI21
aI0
aI16
aI21
aI17
aI18
aI16
aI0
aI21
aI19
aI20
aI16
aI19
aI19
aI0
aI18
aI16
aI21
aI19
aI0
aI18
aI0
aI21
aI20
aI0
aI0
aI16
aI16
aI0
aI21
aI20
aI18
aI16
aI18
aI16
aI20
aI16
aI19
aI20
aI16
aI16
aI0
aI21
aI18
aI21
aI0
aI0
aI17
aI16
aI0
aI20
aI16
aI16
aI20
aI21
aI19
aI18
aI20
aI0
aI18
aI0
aI20
aI20
aI0
aI20
aI19
aI19
aI16
aI16
aI0
aI21
aI16
aI18
aI16
aI18
aI20
aI17
aI16
aI16
aI21
aI0
aI21
aI0
aI17
aI21
aI16
aI0
aI20
aI16
aI21
aI21
aI16
aI21
aI19
aI20
aI16
aI20
aI16
aI21
aI16
aI16
aI16
aI16
aI16
aI0
aI16
aI16
aI16
aI0
aI0
aI16
aI19
aI19
aI19
aI21
aI16
aI16
aI21
aI0
aI18
aI0
aI0
aI20
aI21
aI18
aI0
aI16
aI16
aI16
aI0
aI16
aI21
aI16
aI16
aI19
aI17
aI20
aI20
aI16
aI21
aI16
aI19
aI16
aI16
aI16
aI18
aI16
aI21
aI21
aI21
aI19
aI21
aI16
aI16
aI19
aI18
aI16
aI16
aI21
aI21
aI16
aI16
aI0
aI16
aI17
aI0
aI19
aI16
aI16
aI0
aI16
aI16
aI16
aI16
aI16
aI21
aI16
aI16
aI20
aI16
aI20
aI17
aI21
aI21
aI16
aI16
aI17
aI0
aI0
aI16
aI16
aI21
aI21
aI16
aI16
aI17
aI21
aI19
aI21
aI21
aI16
aI19
aI17
aI16
aI20
aI17
aI16
aI16
aI16
aI19
aI21
aI21
aI16
aI21
aI20
aI16
aI16
aI16
aI0
aI16
aI17
aI0
aI19
aI16
aI19
aI21
aI18
aI21
aI20
aI19
aI16
aI21
aI16
aI0
aI19
aI17
aI16
aI16
aI20
aI17
aI16
aI16
aI19
aI21
aI21
aI19
aI17
aI16
aI16
aI16
aI16
aI0
aI17
aI16
aI16
aI0
aI17
aI0
aI16
aI16
aI0
aI16
aI16
aI20
aI17
aI16
aI21
aI16
aI0
aI19
aI16
aI16
aI0
aI0
aI21
aI0
aI0
aI17
aI21
aI16
aI16
aI17
aI21
aI16
aI16
aI0
aI21
aI19
aI20
aI0
aI18
aI16
aI16
aI20
aI0
aI21
aI21
aI16
aI18
aI19
aI16
aI21
aI16
aI0
aI16
aI16
aI0
aI18
aI19
aI17
aI16
aI16
aI16
aI18
aI21
aI20
aI21
aI16
aI0
aI16
aI21
aI16
aI0
aI20
aI0
aI21
aI21
aI16
aI0
aI19
aI21
aI0
aI0
aI16
aI19
aI16
aI0
aI16
aI16
aI16
aI0
aI0
aI17
aI21
aI16
aI16
aI18
aI21
aI16
aI17
aI16
aI16
aI16
aI16
aI21
aI16
aI0
aI20
aI16
aI16
aI0
aI0
aI0
aI16
aI19
aI16
aI18
aI16
aI0
aI0
aI0
aI20
aI0
aI16
aI0
aI21
aI0
aI16
aI19
aI21
aI16
aI21
aI0
aI19
aI21
aI18
aI17
aI0
aI19
aI17
aI16
aI21
aI20
aI16
aI16
aI16
aI0
aI0
aI20
aI0
aI16
aI16
aI16
aI17
aI0
aI16
aI16
aI19
aI18
aI21
aI0
aI16
aI21
aI18
aI0
aI21
aI16
aI20
aI21
aI16
aI21
aI16
aI21
aI16
aI20
aI16
aI0
aI16
aI18
aI21
aI21
aI19
aI0
aI0
aI17
aI16
aI16
aI16
aI0
aI0
aI16
aI0
aI0
aI16
aI18
aI21
aI17
aI20
aI16
aI16
aI16
aI17
aI21
aI16
aI21
aI0
aI20
aI21
aI21
aI16
aI16
aI0
aI20
aI0
aI16
aI20
aI0
aI21
aI21
aI20
aI19
aI0
aI19
aI21
aI16
aI19
aI20
aI0
aI0
aI21
aI0
aI18
aI16
aI21
aI16
aI16
aI16
aI21
aI16
aI0
aI17
aI17
aI18
aI0
aI16
aI16
aI16
aI18
aI16
aI0
aI16
aI20
aI0
aI16
aI21
aI18
aI19
aI0
aI19
aI18
aI20
aI16
aI16
aI0
aI20
aI17
aI16
aI19
aI16
aI21
aI16
aI0
aI21
aI21
aI0
aI0
aI20
aI19
aI0
aI21
aI16
aI0
aI17
aI0
aI21
aI20
aI17
aI16
aI19
aI16
aI21
aI0
aI19
aI19
aI0
aI19
aI17
aI19
aI21
aI17
aI16
aI16
aI21
aI0
aI16
aI20
aI16
aI16
aI16
aI0
aI20
aI18
aI20
aI20
aI16
aI21
aI16
aI0
aI21
aI16
aI16
aI17
aI16
aI16
aI21
aI16
aI16
aI16
aI16
aI0
aI20
aI16
aI16
aI16
aI19
aI16
aI17
aI21
aI17
aI16
aI16
aI19
aI21
aI19
aI21
aI18
aI21
aI16
aI21
aI0
aI16
aI20
aI19
aI0
aI0
aI16
aI0
aI16
aI16
aI21
aI20
aI21
aI16
aI20
aI21
aI0
aI17
aI0
aI19
aI19
aI0
aI17
aI16
aI16
aI0
aI0
aI21
aI16
aI0
aI20
aI16
aI0
aI19
aI17
aI16
aI19
aI21
aI0
aI21
aI16
aI16
aI17
aI20
aI17
aI16
aI16
aI0
aI0
aI21
aI16
aI16
aI21
aI21
aI16
aI20
aI16
aI21
aI19
aI16
aI21
aI20
aI16
aI20
aI0
aI16
aI21
aI16
aI19
aI19
aI16
aI18
aI16
aI17
aI21
aI19
aI21
aI16
aI21
aI16
aI21
aI19
aI20
aI16
aI0
aI21
aI19
aI17
aI0
aI0
aI21
aI0
aI16
aI0
aI18
aI16
aI21
aI21
aI19
aI16
aI17
aI0
aI16
aI16
aI17
aI20
aI16
aI16
aI21
aI0
aI20
aI21
aI17
aI21
aI16
aI21
aI21
aI16
aI16
aI18
aI20
aI18
aI21
aI16
aI20
aI19
aI19
aI16
aI16
aI21
aI20
aI21
aI0
aI21
aI19
aI18
aI21
aI16
aI19
aI0
aI21
aI17
aI16
aI16
aI21
aI20
aI20
aI21
aI21
aI19
aI20
aI16
aI20
aI17
aI16
aI0
aI16
aI18
aI5
aI17
aI16
aI0
aI16
aI16
aI19
aI19
aI0
aI21
aI16
aI16
aI0
aI21
aI21
aI0
aI21
aI0
aI0
aI21
aI18
aI16
aI21
aI19
aI0
aI19
aI16
aI21
aI20
aI16
aI16
aI21
aI18
aI16
aI16
aI19
aI17
aI16
aI16
aI16
aI18
aI19
aI0
aI16
aI21
aI16
aI16
aI0
aI0
aI19
aI21
aI16
aI16
aI16
aI18
aI16
aI16
aI20
aI20
aI16
aI0
aI21
aI19
aI18
aI21
aI21
aI16
aI16
aI17
aI16
aI16
aI19
aI16
aI16
aI18
aI16
aI21
aI19
aI21
aI17
aI16
aI16
aI16
aI16
aI0
aI16
aI18
aI19
aI16
aI0
aI16
aI16
aI20
aI0
aI20
aI16
aI16
aI18
aI16
aI21
aI18
aI21
aI20
aI16
aI21
aI20
aI16
aI20
aI19
aI12
aI21
aI0
aI20
aI18
aI16
aI16
aI21
aI19
aI16
aI21
aI16
aI16
aI16
aI19
aI21
aI16
aI20
aI16
aI21
aI0
aI0
aI17
aI21
aI16
aI16
aI16
aI19
aI16
aI0
aI21
aI21
aI16
aI0
aI16
aI16
aI21
aI0
aI21
aI0
aI0
aI0
aI21
aI16
aI21
aI21
aI17
aI17
aI16
aI16
aI0
aI0
aI16
aI0
aI0
aI0
aI16
aI17
aI21
aI16
aI16
aI20
aI19
aI21
aI16
aI16
aI0
aI19
aI16
aI17
aI19
aI18
aI21
aI21
aI20
aI16
aI0
aI19
aI16
aI17
aI21
aI21
aI19
aI17
aI16
aI20
aI18
aI16
aI16
aI21
aI19
aI16
aI21
aI16
aI16
aI0
aI0
aI17
aI20
aI16
aI16
aI19
aI16
aI16
aI0
aI20
aI0
aI21
aI0
aI21
aI0
aI19
aI16
aI0
aI21
aI16
aI21
aI16
aI21
aI16
aI20
aI0
aI0
aI0
aI20
aI16
aI21
aI16
aI0
aI16
aI19
aI0
aI19
aI21
aI21
aI21
aI16
aI18
aI16
aI0
aI21
aI21
aI0
aI0
aI16
aI16
aI20
aI21
aI16
aI16
aI21
aI21
aI16
aI16
aI16
aI16
aI0
aI21
aI16
aI16
aI0
aI20
aI20
aI16
aI16
aI18
aI16
aI21
aI21
aI16
aI0
aI16
aI20
aI20
aI16
aI16
aI0
aI16
aI0
aI21
aI16
aI16
aI20
aI21
aI16
aI18
aI16
aI16
aI0
aI20
aI17
aI16
aI19
aI16
aI21
aI16
aI16
aI16
aI20
aI16
aI0
aI16
aI17
aI16
aI16
aI16
aI0
aI21
aI16
aI16
aI0
aI21
aI0
aI0
aI21
aI21
aI21
aI20
aI16
aI18
aI0
aI16
aI16
aI16
aI17
aI20
aI21
aI19
aI16
aI18
aI16
aI18
aI16
aI0
aI16
aI16
aI16
aI21
aI19
aI17
aI16
aI16
aI21
aI16
aI21
aI16
aI16
aI19
aI21
aI20
aI16
aI21
aI21
aI16
aI20
aI16
aI19
aI16
aI18
aI16
aI21
aI21
aI21
aI0
aI16
aI0
aI16
aI19
aI0
aI19
aI17
aI0
aI0
aI16
aI18
aI16
aI18
aI19
aI16
aI17
aI0
aI16
aI0
aI16
aI16
aI19
aI0
aI21
aI21
aI16
aI16
aI16
aI21
aI16
aI16
aI20
aI21
aI19
aI16
aI16
aI0
aI17
aI16
aI16
aI19
aI21
aI19
aI16
aI20
aI21
aI19
aI21
aI16
aI19
aI17
aI20
aI16
aI16
aI16
aI21
aI21
aI16
aI20
aI20
aI20
aI19
aI17
aI21
aI19
aI16
aI18
aI16
aI21
aI16
aI16
aI20
aI0
aI20
aI0
aI0
aI0
aI21
aI16
aI20
aI0
aI0
aI17
aI19
aI16
aI21
aI21
aI16
aI21
aI0
aI19
aI16
aI21
aI21
aI16
aI0
aI21
aI16
aI16
aI0
aI21
aI0
aI17
aI0
aI16
aI20
aI20
aI19
aI17
aI16
aI0
aI16
aI21
aI16
aI18
aI16
aI21
aI0
aI16
aI19
aI18
aI19
aI20
aI17
aI21
aI16
aI19
aI0
aI21
aI17
aI19
aI19
aI16
aI16
aI16
aI16
aI0
aI16
aI16
aI21
aI21
aI16
aI0
aI16
aI0
aI16
aI19
aI19
aI16
aI0
aI19
aI19
aI16
aI19
aI0
aI16
aI20
aI16
aI19
aI21
aI16
aI17
aI21
aI19
aI21
aI21
aI20
aI19
aI20
aI20
aI16
aI0
aI17
aI16
aI16
aI16
aI0
aI21
aI19
aI17
aI16
aI16
aI0
aI19
aI18
aI16
aI16
aI16
aI0
aI17
aI0
aI0
aI0
aI16
aI16
aI16
aI0
aI16
aI2
aI19
aI20
aI20
aI16
aI16
aI21
aI17
aI16
aI20
aI0
aI16
aI21
aI16
aI20
aI21
aI19
aI16
aI16
aI20
aI16
aI18
aI16
aI16
aI16
aI0
aI0
aI21
aI0
aI16
aI21
aI17
aI21
aI21
aI19
aI16
aI0
aI21
aI16
aI19
aI19
aI0
aI18
aI19
aI19
aI17
aI21
aI16
aI0
aI0
aI0
aI21
aI0
aI16
aI16
aI19
aI16
aI0
aI16
aI0
aI20
aI0
aI17
aI16
aI18
aI16
aI17
aI21
aI16
aI20
aI21
aI16
aI16
aI19
aI21
aI19
aI21
aI16
aI16
aI19
aI0
aI21
aI21
aI0
aI0
aI20
aI19
aI20
aI21
aI0
aI21
aI0
aI16
aI21
aI19
aI21
aI0
aI21
aI19
aI21
aI16
aI16
aI21
aI16
aI21
aI19
aI16
aI16
aI0
aI18
aI21
aI17
aI18
aI17
aI17
aI16
aI21
aI19
aI20
aI16
aI16
aI19
aI18
aI16
aI16
aI16
aI21
aI21
aI21
aI17
aI0
aI17
aI18
aI16
aI0
aI20
aI0
aI21
aI16
aI0
aI21
aI16
aI16
aI19
aI21
aI16
aI16
aI0
aI16
aI16
aI16
aI20
aI16
aI16
aI0
aI20
aI0
aI16
aI21
aI16
aI20
aI16
aI16
aI21
aI16
aI0
aI16
aI16
aI16
aI0
aI16
aI19
aI0
aI16
aI0
aI19
aI16
aI20
aI16
aI21
aI19
aI16
aI21
aI16
aI19
aI0
aI16
aI16
aI18
aI17
aI16
aI16
aI17
aI0
aI19
aI19
aI16
aI16
aI16
aI21
aI21
aI16
aI16
aI21
aI16
aI21
aI16
aI0
aI20
aI0
aI16
aI18
aI21
aI21
aI0
aI20
aI21
aI16
aI16
aI16
aI17
aI21
aI21
aI21
aI16
aI21
aI16
aI19
aI0
aI16
aI19
aI16
aI16
aI0
aI0
aI21
aI0
aI0
aI21
aI0
aI16
aI21
aI19
aI18
aI20
aI20
aI16
aI0
aI16
aI21
aI0
aI18
aI19
aI21
aI16
aI16
aI21
aI16
aI16
aI17
aI18
aI16
aI0
aI21
aI0
aI0
aI16
aI16
aI19
aI16
aI16
aI21
aI20
aI20
aI21
aI21
aI16
aI21
aI16
aI16
aI16
aI20
aI21
aI21
aI16
aI18
aI21
aI20
aI16
aI16
aI16
aI19
aI21
aI20
aI0
aI21
aI20
aI19
aI19
aI0
aI16
aI21
aI0
aI18
aI18
aI0
aI16
aI21
aI0
aI16
aI16
aI17
aI16
aI16
aI20
aI21
aI21
aI16
aI21
aI19
aI0
aI0
aI16
aI18
aI20
aI16
aI19
aI20
aI19
aI16
aI19
aI21
aI0
aI20
aI16
aI16
aI21
aI16
aI16
aI17
aI0
aI16
aI19
aI17
aI21
aI19
aI20
aI19
aI16
aI21
aI19
aI16
aI16
aI19
aI16
aI0
aI19
aI21
aI0
aI20
aI0
aI0
aI21
aI16
aI18
aI20
aI21
aI0
aI20
aI17
aI21
aI0
aI0
aI21
aI0
aI21
aI20
aI19
aI21
aI19
aI16
aI16
aI21
aI18
aI19
aI18
aI20
aI0
aI21
aI16
aI21
aI16
aI16
aI16
aI0
aI16
aI0
aI21
aI0
aI16
aI21
aI16
aI20
aI0
aI17
aI20
aI16
aI0
aI0
aI0
aI19
aI0
aI0
aI21
aI16
aI16
aI16
aI16
aI21
aI19
aI0
aI0
aI16
aI17
aI19
aI21
aI16
aI16
aI20
aI21
aI21
aI16
aI0
aI16
aI17
aI19
aI16
aI21
aI16
aI16
aI20
aI20
aI19
aI20
aI0
aI16
aI21
aI19
aI21
aI0
aI21
aI20
aI21
aI16
aI21
aI19
aI21
aI16
aI0
aI16
aI21
aI0
aI16
aI0
aI18
aI16
aI20
aI16
aI21
aI0
aI19
aI21
aI19
aI18
aI20
aI16
aI16
aI21
aI16
aI0
aI19
aI19
aI16
aI16
aI19
aI21
aI18
aI21
aI21
aI21
aI16
aI0
aI16
aI21
aI0
aI16
aI18
aI16
aI0
aI21
aI17
aI20
aI18
aI21
aI0
aI0
aI16
aI16
aI16
aI21
aI19
aI20
aI19
aI19
aI16
aI16
aI16
aI0
aI20
aI0
aI16
aI17
aI18
aI0
aI21
aI17
aI16
aI16
aI0
aI16
aI0
aI19
aI16
aI16
aI21
aI19
aI17
aI21
aI4
aI16
aI0
aI20
aI20
aI16
aI17
aI16
aI0
aI16
aI0
aI17
aI16
aI21
aI20
aI18
aI16
aI16
aI20
aI16
aI18
aI0
aI21
aI0
aI16
aI21
aI21
aI0
aI19
aI18
aI17
aI19
aI0
aI16
aI0
aI16
aI0
aI17
aI21
aI16
aI0
aI21
aI16
aI17
aI21
aI20
aI21
aI16
aI16
aI16
aI0
aI21
aI0
aI16
aI18
aI20
aI20
aI16
aI21
aI20
aI18
aI16
aI19
aI0
aI16
aI19
aI21
aI21
aI16
aI17
aI21
aI0
aI20
aI19
aI17
aI20
aI0
aI16
aI21
aI16
aI0
aI18
aI21
aI0
aI0
aI16
aI16
aI19
aI21
aI19
aI16
aI16
aI16
aI16
aI19
aI17
aI16
aI19
aI19
aI21
aI18
aI20
aI0
aI16
aI16
aI16
aI16
aI20
aI18
aI0
aI16
aI19
aI16
aI21
aI16
aI21
aI16
aI16
aI16
aI0
aI19
aI21
aI18
aI16
aI18
aI0
aI18
aI17
aI16
aI21
aI21
aI0
aI16
aI16
aI16
aI0
aI20
aI18
aI0
aI16
aI16
aI16
aI19
aI20
aI16
aI16
aI21
aI0
aI21
aI16
aI19
aI20
aI21
aI21
aI20
aI21
aI16
aI16
aI16
aI20
aI18
aI16
aI20
aI16
aI20
aI16
aI16
aI0
aI16
aI17
aI16
aI16
aI21
aI17
aI16
aI16
aI21
aI16
aI20
aI16
aI16
aI19
aI16
aI0
aI17
aI16
aI21
aI0
aI16
aI16
aI16
aI16
aI21
aI18
aI0
aI17
aI16
aI21
aI19
aI17
aI17
aI16
aI16
aI19
aI16
aI16
aI19
aI0
aI18
aI0
aI18
aI17
aI21
aI16
aI16
aI16
aI16
aI21
aI16
aI21
aI0
aI0
aI20
aI18
aI16
aI21
aI0
aI16
aI16
aI16
aI16
aI0
aI20
aI16
aI21
aI0
aI17
aI16
aI21
aI18
aI19
aI16
aI21
aI16
aI16
aI21
aI0
aI18
aI16
aI16
aI19
aI20
aI21
aI19
aI21
aI21
aI16
aI19
aI17
aI16
aI19
aI16
aI21
aI17
aI0
aI16
aI16
aI21
aI21
aI20
aI16
aI16
aI0
aI21
aI20
aI17
aI16
aI19
aI16
aI16
aI21
aI21
aI16
aI16
aI16
aI18
aI19
aI19
aI21
aI21
aI16
aI16
aI20
aI16
aI21
aI0
aI21
aI21
aI16
aI16
aI0
aI0
aI20
aI17
aI16
aI20
aI21
aI20
aI16
aI20
aI0
aI21
aI19
aI17
aI20
aI16
aI21
aI19
aI21
aI16
aI19
aI16
aI16
aI16
aI0
aI20
aI16
aI21
aI16
aI17
aI0
aI0
aI0
aI20
aI19
aI17
aI18
aI0
aI16
aI16
aI0
aI16
aI17
aI19
aI0
aI21
aI16
aI21
aI16
aI21
aI16
aI16
aI16
aI17
aI21
aI21
aI17
aI16
aI16
aI16
aI0
aI16
aI16
aI0
aI21
aI16
aI21
aI17
aI16
aI16
aI21
aI0
aI16
aI0
aI21
aI0
aI21
aI18
aI16
aI16
aI21
aI16
aI19
aI0
aI0
aI21
aI16
aI0
aI16
aI16
aI0
aI20
aI19
aI16
aI0
aI18
aI16
aI16
aI16
aI16
aI20
aI16
aI21
aI0
aI16
aI0
aI17
aI20
aI18
aI16
aI20
aI20
aI0
aI16
aI16
aI20
aI21
aI21
aI0
aI17
aI21
aI16
aI16
aI19
aI19
aI21
aI16
aI20
aI18
aI19
aI16
aI16
aI0
aI16
aI0
aI16
aI0
aI0
aI18
aI19
aI20
aI16
aI16
aI17
aI20
aI16
aI16
aI21
aI16
aI21
aI17
aI17
aI16
aI17
aI16
aI19
aI16
aI0
aI16
aI16
aI0
aI0
aI16
aI21
aI0
aI16
aI16
aI16
aI16
aI17
aI16
aI16
aI21
aI16
aI20
aI18
aI18
aI21
aI16
aI16
aI21
aI16
aI21
aI16
aI21
aI20
aI16
aI16
aI18
aI16
aI16
aI0
aI16
aI20
aI0
aI21
aI19
aI21
aI0
aI21
aI19
aI16
aI16
aI21
aI16
aI21
aI16
aI16
aI16
aI21
aI16
aI19
aI16
aI21
aI16
aI16
aI16
aI16
aI20
aI20
aI16
aI16
aI17
aI21
aI16
aI0
aI16
aI21
aI16
aI16
aI0
aI21
aI21
aI19
aI16
aI16
aI0
aI21
aI21
aI16
aI21
aI21
aI21
aI16
aI20
aI16
aI19
aI21
aI16
aI16
aI16
aI16
aI21
aI16
aI0
aI21
aI18
aI21
aI19
aI16
aI16
aI16
aI19
aI20
aI16
aI16
aI16
aI20
aI18
aI16
aI21
aI16
aI21
aI17
aI0
aI0
aI16
aI19
aI21
aI16
aI21
aI19
aI0
aI21
aI19
aI19
aI16
aI16
aI16
aI16
aI0
aI19
aI21
aI16
aI16
aI0
aI16
aI16
aI16
aI16
aI19
aI16
aI17
aI21
aI16
aI0
aI20
aI19
aI20
aI16
aI16
aI19
aI21
aI19
aI16
aI17
aI21
aI16
aI19
aI21
aI19
aI21
aI16
aI20
aI19
aI16
aI16
aI17
aI19
aI16
aI21
aI0
aI19
aI16
aI16
aI17
aI21
aI19
aI16
aI0
aI0
aI16
aI16
aI0
aI16
aI0
aI16
aI16
aI17
aI0
aI0
aI16
aI16
aI0
aI0
aI0
aI0
aI17
aI21
aI16
aI18
aI16
aI20
aI19
aI16
aI19
aI21
aI16
aI16
aI16
aI16
aI16
aI18
aI19
aI19
aI0
aI16
aI20
aI20
aI17
aI19
aI0
aI16
aI16
aI19
aI16
aI16
aI19
aI16
aI0
aI21
aI18
aI16
aI19
aI0
aI20
aI16
aI19
aI21
aI19
aI16
aI20
aI16
aI0
aI19
aI21
aI0
aI16
aI21
aI16
aI16
aI21
aI21
aI0
aI21
aI17
aI17
aI21
aI16
aI20
aI19
aI20
aI19
aI17
aI20
aI16
aI21
aI20
aI0
aI0
aI19
aI16
aI0
aI16
aI16
aI17
aI0
aI16
aI16
aI16
aI16
aI19
aI17
aI21
aI16
aI21
aI16
aI18
aI21
aI16
aI21
aI21
aI21
aI21
aI19
aI19
aI0
aI16
aI19
aI20
aI20
aI0
aI21
aI19
aI18
aI16
aI16
aI0
aI17
aI16
aI21
aI16
aI0
aI0
aI19
aI19
aI0
aI21
aI16
aI16
aI16
aI16
aI19
aI21
aI18
aI0
aI21
aI16
aI21
aI16
aI21
aI16
aI16
aI17
aI0
aI21
aI0
aI16
aI20
aI16
aI0
aI19
aI18
aI0
aI19
aI16
aI0
aI16
aI16
aI18
aI0
aI0
aI20
aI21
aI0
aI16
aI16
aI18
aI16
aI16
aI16
aI21
aI21
aI16
aI16
aI20
aI16
aI0
aI16
aI17
aI18
aI16
aI16
aI16
aI16
aI18
aI0
aI16
aI0
aI16
aI21
aI0
aI19
aI17
aI16
aI16
aI17
aI16
aI21
aI17
aI17
aI17
aI16
aI19
aI16
aI19
aI16
aI0
aI16
aI20
aI21
aI17
aI16
aI19
aI16
aI20
aI0
aI20
aI16
aI21
aI17
aI19
aI16
aI21
aI20
aI21
aI17
aI17
aI16
aI19
aI16
aI16
aI18
aI16
aI16
aI19
aI16
aI16
aI20
aI16
aI0
aI16
aI21
aI16
aI21
aI17
aI18
aI0
aI16
aI0
aI21
aI16
aI21
aI16
aI21
aI20
aI21
aI21
aI0
aI21
aI21
aI17
aI16
aI21
aI16
aI16
aI17
aI16
aI16
aI16
aI0
aI0
aI20
aI16
aI16
aI16
aI16
aI16
aI16
aI17
aI16
aI0
aI20
aI21
aI20
aI21
aI0
aI16
aI21
aI21
aI20
aI0
aI21
aI21
aI16
aI18
aI21
aI21
aI19
aI19
aI16
aI21
aI20
aI21
aI0
aI21
aI21
aI16
aI16
aI16
aI0
aI21
aI19
aI0
aI0
aI21
aI21
aI19
aI19
aI16
aI19
aI21
aI16
aI18
aI21
aI17
aI17
aI20
aI0
aI18
aI20
aI0
aI16
aI20
aI17
aI20
aI18
aI16
aI18
aI16
aI20
aI16
aI0
aI16
aI16
aI19
aI0
aI16
aI16
aI19
aI16
aI19
aI17
aI9
aI16
aI0
aI17
aI16
aI16
aI20
aI20
aI16
aI0
aI16
aI21
aI21
aI16
aI21
aI19
aI16
aI21
aI21
aI20
aI16
aI19
aI16
aI16
aI21
aI20
aI0
aI16
aI0
aI16
aI21
aI21
aI16
aI16
aI16
aI16
aI16
aI19
aI0
aI16
aI0
aI20
aI16
aI18
aI21
aI0
aI21
aI17
aI16
aI16
aI17
aI16
aI17
aI20
aI21
aI21
aI16
aI16
aI21
aI18
aI21
aI19
aI20
aI0
aI20
aI16
aI0
aI0
aI20
aI16
aI18
aI19
aI19
aI21
aI16
aI18
aI17
aI0
aI21
aI21
aI21
aI0
aI0
aI16
aI16
aI18
aI16
aI20
aI21
aI21
aI17
aI16
aI21
aI20
aI0
aI0
aI21
aI16
aI18
aI21
aI0
aI16
aI16
aI19
aI20
aI21
aI21
aI20
aI19
aI0
aI0
aI17
aI0
aI0
aI16
aI16
aI16
aI21
aI17
aI19
aI21
aI17
aI0
aI20
aI0
aI21
aI16
aI16
aI21
aI16
aI19
aI16
aI21
aI20
aI20
aI16
aI16
aI0
aI0
aI17
aI16
aI0
aI16
aI0
aI16
aI0
aI16
aI0
aI18
aI0
aI16
aI21
aI16
aI16
aI19
aI20
aI16
aI20
aI16
aI16
aI19
aI16
aI0
aI16
aI21
aI16
aI17
aI16
aI0
aI16
aI16
aI0
aI19
aI19
aI20
aI17
aI16
aI16
aI16
aI16
aI20
aI21
aI16
aI20
aI0
aI16
aI21
aI21
aI21
aI16
aI16
aI20
aI0
aI20
aI19
aI16
aI17
aI16
aI16
aI0
aI16
aI16
aI20
aI16
aI16
aI0
aI17
aI16
aI16
aI16
aI21
aI16
aI20
aI19
aI21
aI0
aI18
aI17
aI20
aI0
aI21
aI0
aI16
aI0
aI21
aI19
aI16
aI21
aI16
aI16
aI0
aI16
aI16
aI16
aI0
aI16
aI21
aI16
aI20
aI21
aI0
aI0
aI16
aI16
aI16
aI16
aI20
aI16
aI20
aI16
aI16
aI20
aI21
aI21
aI16
aI0
aI20
aI20
aI0
aI16
aI0
aI16
aI0
aI0
aI17
aI16
aI16
aI16
aI17
aI21
aI16
aI16
aI21
aI16
aI16
aI16
aI16
aI20
aI17
aI16
aI19
aI0
aI21
aI16
aI0
aI16
aI21
aI16
aI0
aI20
aI20
aI16
aI20
aI16
aI0
aI21
aI20
aI16
aI19
aI21
aI17
aI0
aI0
aI0
aI16
aI21
aI0
aI20
aI16
aI16
aI16
aI16
aI20
aI0
aI20
aI17
aI0
aI20
aI16
aI0
aI20
aI21
aI20
aI16
aI16
aI16
aI21
aI18
aI21
aI16
aI19
aI0
aI20
aI0
aI16
aI21
aI18
aI16
aI16
aI20
aI16
aI16
aI16
aI20
aI16
aI16
aI16
aI0
aI21
aI20
aI20
aI16
aI0
aI19
aI16
aI0
aI16
aI16
aI19
aI0
aI16
aI20
aI0
aI19
aI16
aI19
aI0
aI21
aI16
aI20
aI20
aI16
aI19
aI16
aI0
aI16
aI21
aI16
aI19
aI0
aI16
aI20
aI17
aI20
aI0
aI20
aI16
aI21
aI16
aI20
aI21
aI16
aI16
aI16
aI20
aI20
aI21
aI19
aI20
aI16
aI16
aI0
aI17
aI16
aI16
aI21
aI20
aI16
aI17
aI19
aI16
aI16
aI20
aI21
aI21
aI18
aI19
aI0
aI21
aI21
aI21
aI16
aI21
aI16
aI21
aI16
aI19
aI16
aI0
aI0
aI19
aI16
aI16
aI21
aI16
aI0
aI16
aI16
aI20
aI0
aI21
aI16
aI0
aI16
aI16
aI16
aI0
aI17
aI20
aI20
aI0
aI16
aI20
aI0
aI20
aI16
aI19
aI17
aI0
aI17
aI20
aI20
aI19
aI16
aI16
aI0
aI16
aI21
aI16
aI16
aI16
aI19
aI20
aI20
aI20
aI17
aI21
aI18
aI19
aI17
aI20
aI19
aI20
aI17
aI19
aI0
aI16
aI16
aI16
aI16
aI16
aI21
aI16
aI17
aI20
aI16
aI19
aI19
aI13
aI21
aI17
aI21
aI0
aI16
aI16
aI21
aI21
aI0
aI19
aI19
aI0
aI16
aI0
aI21
aI21
aI19
aI18
aI0
aI19
aI21
aI19
aI0
aI19
aI20
aI21
aI19
aI21
aI20
aI0
aI21
aI21
aI16
aI16
aI16
aI16
aI21
aI17
aI17
aI16
aI21
aI21
aI16
aI20
aI16
aI17
aI17
aI16
aI21
aI0
aI21
aI21
aI16
aI16
aI0
aI16
aI0
aI16
aI16
aI19
aI20
aI16
aI18
aI16
aI0
aI21
aI16
aI16
aI0
aI21
aI0
aI17
aI16
aI0
aI16
aI18
aI0
aI17
aI16
aI16
aI16
aI16
aI16
aI20
aI16
aI0
aI16
aI0
aI16
aI20
aI19
aI16
aI18
aI16
aI16
aI16
aI18
aI21
aI16
aI21
aI16
aI16
aI16
aI16
aI16
aI20
aI19
aI21
aI0
aI16
aI16
aI18
aI16
aI21
aI16
aI17
aI16
aI20
aI21
aI21
aI0
aI16
aI17
aI0
aI21
aI16
aI16
aI0
aI0
aI16
aI18
aI19
aI20
aI17
aI21
aI21
aI21
aI16
aI16
aI17
aI16
aI16
aI17
aI19
aI21
aI16
aI20
aI16
aI19
aI18
aI21
aI0
aI16
aI16
aI16
aI21
aI0
aI19
aI16
aI16
aI21
aI21
aI0
aI19
aI16
aI16
aI21
aI21
aI19
aI16
aI21
aI16
aI16
aI0
aI0
aI21
aI21
aI16
aI19
aI0
aI16
aI18
aI21
aI0
aI17
aI16
aI16
aI16
aI21
aI21
aI16
aI21
aI0
aI21
aI21
aI16
aI21
aI16
aI16
aI21
aI20
aI21
aI20
aI21
aI16
aI18
aI0
aI16
aI16
aI20
aI20
aI21
aI16
aI19
aI0
aI16
aI16
aI0
aI21
aI0
aI0
aI16
aI0
aI0
aI21
aI19
aI16
aI21
aI0
aI17
aI0
aI16
aI21
aI21
aI0
aI0
aI16
aI19
aI21
aI21
aI21
aI16
aI16
aI21
aI0
aI0
aI21
aI20
aI0
aI16
aI19
aI16
aI19
aI16
aI16
aI21
aI21
aI16
aI19
aI16
aI20
aI0
aI21
aI21
aI0
aI16
aI16
aI16
aI0
aI0
aI16
aI21
aI16
aI16
aI16
aI16
aI19
aI16
aI19
aI0
aI17
aI17
aI20
aI19
aI20
aI16
aI16
aI16
aI20
aI21
aI19
aI19
aI21
aI16
aI16
aI16
aI16
aI21
aI16
aI16
aI0
aI0
aI18
aI21
aI16
aI18
aI0
aI16
aI19
aI20
aI21
aI17
aI21
aI16
aI21
aI21
aI16
aI21
aI19
aI0
aI17
aI16
aI16
aI16
aI21
aI16
aI19
aI16
aI20
aI0
aI16
aI19
aI19
aI19
aI0
aI16
aI21
aI16
aI16
aI17
aI16
aI16
aI16
aI16
aI19
aI0
aI19
aI20
aI21
aI17
aI0
aI19
aI17
aI16
aI18
aI21
aI18
aI21
aI16
aI20
aI16
aI17
aI0
aI0
aI21
aI19
aI18
aI16
aI16
aI0
aI0
aI17
aI16
aI0
aI18
aI0
aI21
aI0
aI16
aI0
aI16
aI16
aI16
aI20
aI20
aI16
aI16
aI17
aI19
aI0
aI17
aI0
aI0
aI21
aI21
aI21
aI21
aI16
aI16
aI16
aI0
aI0
aI16
aI20
aI19
aI16
aI0
aI0
aI21
aI16
aI16
aI20
aI0
aI21
aI16
aI21
aI16
aI17
aI0
aI21
aI21
aI16
aI16
aI21
aI0
aI18
aI21
aI19
aI21
aI19
aI21
aI16
aI17
aI17
aI0
aI20
aI20
aI17
aI21
aI16
aI19
aI21
aI16
aI16
aI20
aI19
aI16
aI21
aI19
aI19
aI16
aI19
aI17
aI21
aI16
aI19
aI17
aI17
aI16
aI16
aI16
aI0
aI16
aI16
aI18
aI21
aI16
aI20
aI16
aI0
aI21
aI0
aI20
aI20
aI20
aI19
aI0
aI16
aI0
aI16
aI16
aI0
aI20
aI20
aI19
aI16
aI18
aI21
aI16
aI16
aI19
aI0
aI0
aI16
aI0
aI16
aI16
aI17
aI18
aI16
aI16
aI0
aI21
aI16
aI19
aI0
aI16
aI16
aI21
aI20
aI17
aI16
aI16
aI18
aI0
aI0
aI0
aI0
aI17
aI16
aI19
aI21
aI0
aI21
aI17
aI16
aI21
aI16
aI17
aI19
aI17
aI21
aI20
aI16
aI0
aI16
aI21
aI0
aI21
aI17
aI21
aI20
aI17
aI16
aI0
aI21
aI16
aI17
aI18
aI19
aI19
aI21
aI17
aI0
aI17
aI16
aI16
aI0
aI16
aI0
aI19
aI0
aI17
aI21
aI21
aI16
aI16
aI18
aI17
aI0
aI21
aI21
aI21
aI19
aI20
aI18
aI21
aI21
aI16
aI21
aI16
aI16
aI16
aI20
aI19
aI16
aI0
aI0
aI21
aI21
aI20
aI0
aI18
aI0
aI19
aI16
aI21
aI0
aI16
aI16
aI16
aI21
aI16
aI16
aI21
aI21
aI0
aI16
aI0
aI18
aI16
aI20
aI0
aI16
aI17
aI16
aI0
aI16
aI16
aI18
aI0
aI20
aI20
aI0
aI16
aI16
aI21
aI16
aI21
aI16
aI0
aI16
aI18
aI16
aI0
aI20
aI16
aI19
aI0
aI20
aI21
aI21
aI0
aI19
aI21
aI16
aI0
aI0
aI20
aI0
aI19
aI16
aI18
aI16
aI21
aI20
aI20
aI16
aI0
aI17
aI21
aI0
aI21
aI16
aI0
aI0
aI20
aI0
aI21
aI16
aI20
aI21
aI19
aI21
aI16
aI0
aI20
aI20
aI16
aI16
aI17
aI21
aI19
aI0
aI16
aI16
aI16
aI20
aI0
aI16
aI21
aI16
aI16
aI16
aI20
aI21
aI18
aI16
aI20
aI16
aI0
aI17
aI16
aI16
aI0
aI21
aI21
aI19
aI16
aI18
aI0
aI19
aI21
aI17
aI18
aI17
aI16
aI20
aI21
aI16
aI16
aI21
aI16
aI16
aI17
aI16
aI0
aI20
aI16
aI16
aI16
aI16
aI16
aI0
aI20
aI16
aI21
aI20
aI20
aI19
aI0
aI19
aI0
aI20
aI19
aI19
aI21
aI16
aI0
aI16
aI0
aI16
aI21
aI16
aI16
aI16
aI16
aI16
aI17
aI19
aI16
aI19
aI21
aI21
aI16
aI21
aI0
aI0
aI16
aI16
aI16
aI19
aI16
aI19
aI0
aI21
aI20
aI0
aI19
aI0
aI0
aI20
aI21
aI19
aI19
aI0
aI17
aI0
aI19
aI21
aI21
aI16
aI21
aI16
aI0
aI16
aI16
aI16
aI16
aI0
aI16
aI16
aI16
aI21
aI21
aI20
aI0
aI16
aI0
aI17
aI20
aI0
aI20
aI18
aI0
aI21
aI0
aI17
aI17
aI16
aI17
aI0
aI21
aI16
aI0
aI16
aI16
aI16
aI16
aI0
aI16
aI16
aI21
aI16
aI19
aI16
aI0
aI18
aI18
aI21
aI20
aI19
aI19
aI18
aI21
aI16
aI16
aI20
aI21
aI0
aI16
aI16
aI0
aI16
aI21
aI16
aI16
aI16
aI19
aI17
aI16
aI16
aI16
aI21
aI0
aI16
aI18
aI21
aI21
aI21
aI16
aI16
aI20
aI16
aI0
aI20
aI16
aI18
aI16
aI17
aI16
aI20
aI19
aI16
aI17
aI20
aI16
aI20
aI21
aI17
aI16
aI20
aI21
aI0
aI16
aI16
aI21
aI17
aI19
aI0
aI19
aI0
aI16
aI21
aI19
aI18
aI0
aI0
aI16
aI0
aI16
aI21
aI21
aI0
aI16
aI16
aI0
aI0
aI18
aI16
aI18
aI20
aI18
aI0
aI16
aI20
aI0
aI16
aI19
aI16
aI20
aI19
aI16
aI21
aI16
aI0
aI17
aI21
aI19
aI0
aI16
aI19
aI21
aI21
aI0
aI18
aI16
aI21
aI16
aI16
aI21
aI16
aI18
aI16
aI16
aI21
aI0
aI0
aI19
aI16
aI21
aI0
aI20
aI16
aI20
aI16
aI21
aI16
aI20
aI3
aI16
aI20
aI16
aI21
aI16
aI0
aI21
aI21
aI17
aI19
aI0
aI16
aI16
aI16
aI0
aI21
aI20
aI16
aI16
aI0
aI0
aI16
aI16
aI0
aI16
aI21
aI16
aI19
aI0
aI0
aI19
aI20
aI16
aI16
aI16
aI16
aI19
aI19
aI21
aI16
aI18
aI16
aI20
aI20
aI0
aI16
aI16
aI20
aI21
aI16
aI0
aI0
aI0
aI16
aI16
aI19
aI0
aI16
aI0
aI16
aI17
aI21
aI16
aI16
aI21
aI21
aI16
aI20
aI16
aI0
aI19
aI21
aI20
aI16
aI16
aI16
aI17
aI0
aI17
aI16
aI16
aI0
aI16
aI21
aI16
aI16
aI16
aI17
aI18
aI4
aI16
aI16
aI19
aI0
aI16
aI20
aI19
aI16
aI19
aI0
aI0
aI21
aI16
aI0
aI16
aI0
aI21
aI16
aI16
aI17
aI0
aI21
aI20
aI0
aI20
aI0
aI16
aI21
aI16
aI16
aI19
aI0
aI20
aI17
aI20
aI0
aI0
aI0
aI17
aI21
aI16
aI21
aI18
aI21
aI16
aI20
aI16
aI16
aI16
aI16
aI0
aI19
aI19
aI16
aI16
aI19
aI20
aI21
aI16
aI21
aI19
aI16
aI21
aI21
aI21
aI21
aI21
aI17
aI16
aI19
aI20
aI16
aI20
aI20
aI0
aI16
aI19
aI16
aI16
aI0
aI17
aI0
aI16
aI0
aI0
aI20
aI21
aI17
aI0
aI18
aI19
aI20
aI16
aI20
aI17
aI16
aI16
aI16
aI0
aI18
aI16
aI16
aI21
aI16
aI16
aI0
aI0
aI0
aI21
aI21
aI16
aI16
aI16
aI16
aI0
aI16
aI21
aI0
aI0
aI21
aI19
aI20
aI0
aI0
aI16
aI19
aI20
aI16
aI0
aI16
aI16
aI16
aI20
aI0
aI19
aI0
aI16
aI21
aI20
aI16
aI0
aI17
aI0
aI21
aI21
aI17
aI19
aI18
aI0
aI21
aI21
aI0
aI16
aI21
aI19
aI19
aI16
aI21
aI18
aI21
aI19
aI16
aI20
aI21
aI21
aI0
aI16
aI20
aI16
aI20
aI18
aI16
aI0
aI17
aI18
aI20
aI17
aI16
aI16
aI16
aI16
aI17
aI21
aI0
aI16
aI19
aI18
aI16
aI0
aI0
aI0
aI21
aI18
aI16
aI19
aI0
aI21
aI19
aI0
aI16
aI18
aI20
aI0
aI16
aI18
aI19
aI19
aI0
aI16
aI16
aI0
aI16
aI17
aI0
aI21
aI20
aI0
aI0
aI16
aI18
aI16
aI21
aI20
aI16
aI21
aI21
aI20
aI21
aI0
aI21
aI16
aI0
aI17
aI0
aI20
aI0
aI16
aI0
aI21
aI21
aI16
aI20
aI21
aI0
aI19
aI21
aI0
aI21
aI16
aI20
aI16
aI16
aI19
aI21
aI16
aI16
aI20
aI0
aI17
aI17
aI16
aI21
aI18
aI0
aI16
aI0
aI16
aI17
aI0
aI0
aI20
aI16
aI21
aI21
aI21
aI0
aI18
aI19
aI19
aI16
aI19
aI21
aI18
aI21
aI16
aI20
aI16
aI16
aI0
aI16
aI0
aI16
aI16
aI19
aI21
aI19
aI16
aI17
aI21
aI21
aI20
aI0
aI21
aI16
aI0
aI16
aI21
aI16
aI19
aI16
aI20
aI18
aI16
aI0
aI20
aI21
aI16
aI21
aI20
aI16
aI16
aI0
aI16
aI0
aI0
aI19
aI16
aI18
aI16
aI19
aI21
aI16
aI18
aI16
aI0
aI21
aI21
aI18
aI16
aI16
aI21
aI16
aI0
aI19
aI0
aI21
aI21
aI21
aI0
aI16
aI18
aI20
aI16
aI16
aI17
aI16
aI18
aI16
aI19
aI20
aI16
aI20
aI16
aI21
aI0
aI16
aI20
aI16
aI16
aI16
aI20
aI16
aI19
aI21
aI17
aI16
aI0
aI16
aI0
aI16
aI19
aI0
aI0
aI18
aI0
aI0
aI17
aI16
aI18
aI21
aI16
aI16
aI21
aI0
aI21
aI16
aI16
aI16
aI0
aI0
aI16
aI19
aI21
aI16
aI18
aI0
aI16
aI16
aI0
aI16
aI21
aI18
aI16
aI21
aI16
aI16
aI16
aI0
aI17
aI21
aI0
aI16
aI16
aI18
aI21
aI16
aI16
aI16
aI16
aI21
aI17
aI21
aI16
aI17
aI16
aI18
aI19
aI16
aI16
aI16
aI0
aI16
aI16
aI16
aI0
aI17
aI16
aI19
aI21
aI0
aI18
aI16
aI0
aI16
aI20
aI21
aI16
aI16
aI16
aI16
aI21
aI0
aI16
aI0
aI20
aI21
aI19
aI20
aI16
aI21
aI16
aI16
aI0
aI17
aI0
aI0
aI21
aI16
aI21
aI16
aI21
aI21
aI16
aI21
aI16
aI19
aI19
aI17
aI20
aI16
aI21
aI20
aI21
aI21
aI19
aI16
aI0
aI17
aI20
aI20
aI21
aI16
aI21
aI16
aI21
aI16
aI16
aI16
aI16
aI0
aI21
aI21
aI20
aI19
aI16
aI16
aI21
aI16
aI0
aI16
aI0
aI17
aI21
aI16
aI16
aI16
aI21
aI17
aI16
aI19
aI16
aI21
aI16
aI21
aI16
aI16
aI20
aI19
aI0
aI16
aI16
aI16
aI20
aI19
aI20
aI16
aI17
aI0
aI16
aI16
aI16
aI16
aI21
aI21
aI16
aI16
aI16
aI16
aI19
aI20
aI16
aI21
aI21
aI19
aI21
aI20
aI18
aI21
aI21
aI16
aI16
aI16
aI20
aI17
aI18
aI19
aI18
aI20
aI21
aI17
aI16
aI20
aI0
aI21
aI16
aI0
aI21
aI16
aI16
aI20
aI0
aI16
aI16
aI20
aI21
aI16
aI19
aI20
aI0
aI0
aI17
aI0
aI16
aI16
aI0
aI18
aI16
aI21
aI21
aI20
aI16
aI20
aI21
aI20
aI17
aI17
aI17
aI21
aI16
aI21
aI0
aI16
aI0
aI17
aI17
aI21
aI19
aI16
aI21
aI17
aI16
aI16
aI16
aI16
aI21
aI21
aI0
aI16
aI16
aI18
aI16
aI16
aI19
aI17
aI20
aI20
aI21
aI16
aI16
aI16
aI16
aI18
aI16
aI16
aI0
aI21
aI16
aI21
aI16
aI16
aI21
aI16
aI0
aI19
aI16
aI21
aI19
aI0
aI21
aI20
aI19
aI16
aI0
aI21
aI16
aI21
aI21
aI19
aI18
aI16
aI21
aI16
aI20
aI0
aI0
aI16
aI16
aI21
aI16
aI0
aI17
aI19
aI20
aI16
aI19
aI19
aI16
aI20
aI21
aI0
aI21
aI16
aI16
aI21
aI21
aI19
aI21
aI20
aI21
aI0
aI20
aI21
aI18
aI0
aI16
aI0
aI16
aI0
aI21
aI0
aI16
aI20
aI20
aI16
aI16
aI16
aI0
aI16
aI0
aI0
aI19
aI18
aI18
aI16
aI16
aI16
aI16
aI16
aI20
aI16
aI16
aI20
aI17
aI19
aI21
aI21
aI0
aI16
aI17
aI21
aI17
aI16
aI16
aI0
aI19
aI16
aI16
aI0
aI16
aI0
aI16
aI0
aI16
aI16
aI21
aI16
aI16
aI21
aI21
aI16
aI18
aI16
aI16
aI16
aI21
aI21
aI0
aI21
aI16
aI16
aI0
aI16
aI19
aI16
aI16
aI21
aI0
aI16
aI0
aI21
aI21
aI17
aI16
aI17
aI16
aI16
aI19
aI0
aI16
aI18
aI16
aI17
aI18
aI0
aI16
aI16
aI16
aI16
aI16
aI16
aI21
aI18
aI21
aI21
aI0
aI20
aI21
aI18
aI17
aI16
aI20
aI16
aI18
aI21
aI18
aI21
aI16
aI0
aI21
aI16
aI20
aI21
aI20
aI21
aI0
aI16
aI16
aI0
aI19
aI18
aI0
aI0
aI16
aI18
aI0
aI16
aI21
aI16
aI0
aI16
aI21
aI16
aI16
aI21
aI17
aI16
aI0
aI21
aI16
aI0
aI16
aI17
aI16
aI16
aI17
aI0
aI18
aI0
aI20
aI0
aI16
aI0
aI16
aI17
aI16
aI0
aI21
aI16
aI17
aI16
aI16
aI19
aI21
aI21
aI20
aI20
aI18
aI16
aI0
aI16
aI16
aI16
aI18
aI16
aI17
aI16
aI16
aI19
aI18
aI21
aI17
aI16
aI0
aI16
aI19
aI21
aI16
aI21
aI21
aI0
aI17
aI16
aI16
aI0
aI0
aI16
aI17
aI18
aI19
aI20
aI21
aI17
aI21
aI19
aI0
aI0
aI20
aI21
aI21
aI16
aI20
aI19
aI0
aI0
aI20
aI16
aI16
aI16
aI16
aI21
aI18
aI16
aI16
aI20
aI0
aI16
aI21
aI20
aI0
aI21
aI18
aI16
aI17
aI16
aI16
aI18
aI0
aI21
aI16
aI16
aI16
aI20
aI18
aI0
aI16
aI16
aI20
aI18
aI21
aI16
aI16
aI19
aI16
aI21
aI21
aI0
aI0
aI16
aI16
aI21
aI20
aI0
aI16
aI16
aI21
aI0
aI19
aI16
aI0
aI16
aI20
aI16
aI18
aI16
aI0
aI16
aI16
aI16
aI20
aI16
aI16
aI0
aI19
aI21
aI0
aI17
aI21
aI16
aI19
aI16
aI16
aI21
aI21
aI16
aI16
aI0
aI20
aI21
aI21
aI19
aI21
aI16
aI0
aI16
aI16
aI16
aI17
aI16
aI16
aI16
aI17
aI16
aI18
aI16
aI18
aI21
aI0
aI16
aI21
aI17
aI20
aI19
aI20
aI21
aI0
aI16
aI0
aI16
aI18
aI19
aI16
aI16
aI0
aI16
aI21
aI20
aI16
aI16
aI21
aI16
aI16
aI19
aI16
aI17
aI20
aI21
aI20
aI17
aI0
aI16
aI19
aI18
aI20
aI19
aI21
aI16
aI20
aI17
aI16
aI21
aI16
aI16
aI0
aI18
aI20
aI16
aI16
aI20
aI16
aI21
aI16
aI16
aI20
aI16
aI16
aI19
aI21
aI16
aI21
aI21
aI0
aI16
aI19
aI19
aI21
aI20
aI19
aI19
aI16
aI16
aI0
aI16
aI16
aI0
aI20
aI19
aI16
aI16
aI20
aI18
aI20
aI16
aI21
aI16
aI16
aI17
aI16
aI19
aI17
aI20
aI16
aI21
aI17
aI16
aI16
aI18
aI17
aI16
aI21
aI20
aI19
aI0
aI21
aI21
aI19
aI21
aI21
aI16
aI18
aI16
aI16
aI16
aI17
aI16
aI19
aI16
aI16
aI16
aI21
aI16
aI0
aI21
aI17
aI0
aI21
aI16
aI21
aI19
aI21
aI16
aI21
aI16
aI19
aI16
aI20
aI16
aI19
aI16
aI16
aI20
aI16
aI21
aI16
aI16
aI16
aI16
aI21
aI0
aI21
aI20
aI16
aI16
aI0
aI16
aI21
aI21
aI21
aI0
aI16
aI16
aI21
aI16
aI16
aI19
aI0
aI20
aI21
aI16
aI19
aI0
aI0
aI19
aI16
aI0
aI16
aI16
aI20
aI20
aI21
aI16
aI16
aI16
aI21
aI16
aI17
aI19
aI16
aI18
aI21
aI16
aI21
aI19
aI16
aI21
aI17
aI16
aI17
aI21
aI16
aI18
aI0
aI17
aI20
aI18
aI16
aI16
aI16
aI20
aI16
aI0
aI17
aI0
aI21
aI16
aI21
aI18
aI0
aI16
aI17
aI0
aI20
aI21
aI21
aI21
aI0
aI0
aI19
aI17
aI19
aI21
aI0
aI21
aI0
aI16
aI16
aI17
aI21
aI20
aI0
aI17
aI19
aI16
aI0
aI16
aI16
aI16
aI21
aI16
aI16
aI21
aI19
aI0
aI16
aI0
aI16
aI16
aI0
aI19
aI21
aI19
aI18
aI16
aI20
aI16
aI20
aI16
aI0
aI16
aI0
aI16
aI0
aI0
aI18
aI16
aI21
aI17
aI0
aI16
aI0
aI0
aI16
aI0
aI18
aI16
aI16
aI16
aI16
aI21
aI21
aI20
aI0
aI16
aI16
aI19
aI16
aI21
aI21
aI16
aI16
aI17
aI16
aI20
aI16
aI16
aI16
aI17
aI20
aI16
aI21
aI16
aI17
aI16
aI17
aI16
aI0
aI20
aI19
aI16
aI16
aI17
aI0
aI20
aI17
aI20
aI21
aI0
aI16
aI16
aI0
aI19
aI21
aI0
aI16
aI19
aI16
aI16
aI16
aI0
aI21
aI16
aI16
aI0
aI0
aI21
aI20
aI0
aI16
aI21
aI16
aI21
aI16
aI21
aI0
aI16
aI19
aI16
aI16
aI20
aI0
aI18
aI20
aI16
aI21
aI21
aI20
aI21
aI21
aI21
aI21
aI16
aI21
aI19
aI0
aI20
aI16
aI16
aI21
aI16
aI16
aI16
aI16
aI16
aI16
aI21
aI20
aI16
aI21
aI0
aI0
aI16
aI21
aI20
aI21
aI16
aI16
aI21
aI21
aI0
aI19
aI16
aI0
aI16
aI20
aI20
aI16
aI16
aI19
aI16
aI16
aI0
aI19
aI21
aI16
aI16
aI21
aI16
aI21
aI0
aI18
aI16
aI0
aI16
aI0
aI18
aI16
aI20
aI0
aI16
aI16
aI19
aI0
aI16
aI17
aI16
aI19
aI16
aI21
aI19
aI16
aI16
aI16
aI16
aI16
aI20
aI0
aI16
aI21
aI17
aI16
aI19
aI20
aI16
aI0
aI16
aI21
aI21
aI17
aI20
aI16
aI0
aI16
aI16
aI0
aI16
aI17
aI16
aI16
aI18
aI21
aI19
aI18
aI16
aI20
aI16
aI21
aI16
aI16
aI16
aI17
aI16
aI19
aI16
aI0
aI0
aI18
aI21
aI21
aI19
aI0
aI21
aI20
aI0
aI0
aI16
aI0
aI16
aI0
aI16
aI19
aI0
aI16
aI0
aI16
aI16
aI18
aI21
aI16
aI19
aI16
aI21
aI17
aI16
aI20
aI0
aI18
aI16
aI20
aI19
aI16
aI17
aI19
aI18
aI20
aI20
aI16
aI19
aI20
aI16
aI16
aI16
aI0
aI21
aI18
aI17
aI20
aI0
aI0
aI21
aI16
aI21
aI0
aI21
aI16
aI0
aI16
aI16
aI16
aI21
aI21
aI16
aI16
aI18
aI20
aI19
aI16
aI16
aI21
aI16
aI20
aI21
aI0
aI0
aI19
aI16
aI16
aI16
aI20
aI20
aI20
aI16
aI16
aI0
aI20
aI18
aI20
aI0
aI16
aI16
aI16
aI16
aI18
aI16
aI20
aI0
aI18
aI21
aI0
aI0
aI20
aI0
aI0
aI0
aI16
aI20
aI21
aI0
aI16
aI17
aI17
aI21
aI17
aI19
aI17
aI0
aI20
aI16
aI16
aI21
aI0
aI17
aI19
aI19
aI21
aI16
aI21
aI16
aI16
aI18
aI21
aI20
aI16
aI0
aI0
aI21
aI16
aI16
aI16
aI0
aI0
aI21
aI18
aI21
aI21
aI21
aI0
aI16
aI0
aI18
aI21
aI16
aI16
aI16
aI17
aI17
aI20
aI16
aI19
aI16
aI20
aI16
aI20
aI16
aI20
aI21
aI21
aI0
aI20
aI16
aI17
aI16
aI0
aI20
aI21
aI16
aI0
aI18
aI18
aI17
aI20
aI16
aI19
aI17
aI17
aI21
aI18
aI0
aI21
aI20
aI16
aI0
aI16
aI16
aI20
aI16
aI0
aI0
aI20
aI16
aI16
aI16
aI0
aI16
aI16
aI21
aI18
aI16
aI16
aI16
aI0
aI0
aI19
aI19
aI21
aI21
aI21
aI0
aI16
aI16
aI21
aI0
aI16
aI21
aI18
aI21
aI16
aI20
aI0
aI0
aI16
aI19
aI21
aI19
aI16
aI17
aI16
aI16
aI16
aI16
aI19
aI16
aI16
aI21
aI0
aI16
aI0
aI16
aI16
aI0
aI16
aI16
aI21
aI21
aI0
aI0
aI21
aI16
aI20
aI16
aI16
aI21
aI20
aI21
aI21
aI16
aI19
aI16
aI17
aI0
aI16
aI16
aI16
aI16
aI21
aI16
aI21
aI16
aI0
aI0
aI20
aI16
aI0
aI0
aI17
aI0
aI0
aI20
aI17
aI21
aI20
aI0
aI19
aI16
aI0
aI20
aI21
aI16
aI16
aI16
aI0
aI0
aI16
aI16
aI21
aI16
aI16
aI0
aI19
aI20
aI16
aI0
aI19
aI16
aI21
aI16
aI0
aI0
aI20
aI16
aI16
aI0
aI21
aI16
aI17
aI21
aI16
aI16
aI18
aI16
aI18
aI20
aI17
aI17
aI21
aI16
aI16
aI16
aI0
aI16
aI18
aI21
aI21
aI17
aI21
aI19
aI16
aI21
aI16
aI16
aI0
aI0
aI0
aI19
aI21
aI0
aI0
aI0
aI21
aI0
aI19
aI16
aI21
aI20
aI16
aI20
aI19
aI16
aI0
aI17
aI0
aI16
aI17
aI20
aI20
aI20
aI16
aI19
aI19
aI21
aI21
aI21
aI17
aI17
aI20
aI21
aI21
aI17
aI17
aI19
aI21
aI16
aI16
aI16
aI21
aI20
aI18
aI0
aI0
aI16
aI20
aI16
aI17
aI21
aI16
aI21
aI16
aI21
aI16
aI16
aI16
aI21
aI0
aI0
aI21
aI16
aI21
aI18
aI16
aI0
aI19
aI16
aI19
aI16
aI19
aI0
aI16
aI19
aI16
aI21
aI19
aI0
aI21
aI0
aI21
aI0
aI16
aI0
aI16
aI19
aI19
aI0
aI18
aI16
aI0
aI16
aI17
aI21
aI20
aI21
aI18
aI16
aI20
aI16
aI16
aI16
aI0
aI21
aI0
aI17
aI21
aI21
aI19
aI17
aI20
aI16
aI21
aI20
aI21
aI16
aI21
aI21
aI17
aI16
aI19
aI16
aI19
aI20
aI19
aI18
aI0
aI16
aI16
aI16
aI19
aI19
aI0
aI0
aI0
aI16
aI0
aI21
aI16
aI16
aI0
aI18
aI21
aI20
aI0
aI21
aI16
aI0
aI16
aI16
aI18
aI21
aI0
aI17
aI16
aI16
aI21
aI18
aI16
aI16
aI16
aI18
aI19
aI0
aI17
aI20
aI18
aI21
aI16
aI0
aI16
aI18
aI0
aI17
aI16
aI0
aI21
aI21
aI21
aI19
aI20
aI19
aI16
aI16
aI16
aI20
aI17
aI21
aI19
aI0
aI20
aI16
aI16
aI16
aI16
aI20
aI16
aI16
aI19
aI16
aI17
aI16
aI16
aI20
aI16
aI19
aI17
aI21
aI16
aI19
aI19
aI0
aI21
aI21
aI16
aI17
aI0
aI20
aI21
aI0
aI16
aI16
aI20
aI21
aI19
aI17
aI16
aI0
aI17
aI0
aI19
aI0
aI0
aI21
aI19
aI16
aI17
aI16
aI16
aI0
aI19
aI21
aI21
aI0
aI0
aI19
aI0
aI21
aI19
aI16
aI16
aI16
aI16
aI19
aI17
aI17
aI16
aI16
aI19
aI16
aI16
aI19
aI20
aI21
aI16
aI16
aI19
aI21
aI19
aI21
aI16
aI21
aI16
aI17
aI21
aI21
aI16
aI16
aI21
aI16
aI16
aI16
aI21
aI17
aI16
aI16
aI21
aI0
aI16
aI0
aI16
aI20
aI16
aI18
aI21
aI21
aI16
aI21
aI16
aI16
aI19
aI21
aI16
aI0
aI16
aI17
aI17
aI21
aI16
aI17
aI16
aI16
aI0
aI16
aI0
aI21
aI16
aI16
aI19
aI21
aI21
aI16
aI16
aI16
aI20
aI16
aI20
aI17
aI16
aI16
aI20
aI0
aI16
aI20
aI16
aI16
aI19
aI17
aI20
aI16
aI21
aI17
aI0
aI16
aI16
aI0
aI16
aI16
aI0
aI21
aI16
aI16
aI0
aI16
aI20
aI20
aI20
aI16
aI0
aI16
aI16
aI16
aI21
aI0
aI16
aI0
aI16
aI21
aI16
aI18
aI16
aI18
aI16
aI0
aI16
aI16
aI0
aI17
aI18
aI0
aI13
aI16
aI16
aI21
aI20
aI16
aI20
aI16
aI17
aI19
aI0
aI19
aI19
aI21
aI16
aI21
aI21
aI0
aI16
aI20
aI16
aI17
aI19
aI18
aI0
aI0
aI0
aI17
aI16
aI0
aI21
aI20
aI20
aI16
aI16
aI21
aI0
aI0
aI17
aI21
aI16
aI17
aI19
aI20
aI16
aI17
aI16
aI0
aI17
aI21
aI21
aI0
aI0
aI21
aI0
aI21
aI16
aI21
aI19
aI16
aI16
aI18
aI0
aI16
aI16
aI16
aI16
aI21
aI16
aI20
aI21
aI21
aI17
aI16
aI20
aI16
aI0
aI0
aI21
aI16
aI16
aI0
aI16
aI20
aI17
aI16
aI18
aI21
aI0
aI16
aI18
aI17
aI20
aI0
aI19
aI17
aI16
aI21
aI21
aI0
aI21
aI19
aI16
aI17
aI18
aI20
aI19
aI17
aI21
aI21
aI20
aI20
aI16
aI21
aI16
aI20
aI21
aI20
aI19
aI19
aI19
aI17
aI20
aI17
aI16
aI21
aI0
aI21
aI16
aI16
aI17
aI21
aI16
aI16
aI16
aI16
aI16
aI16
aI16
aI21
aI20
aI21
aI21
aI0
aI16
aI16
aI0
aI0
aI17
aI0
aI16
aI18
aI0
aI16
aI16
aI0
aI21
aI16
aI0
aI21
aI19
aI21
aI0
aI16
aI16
aI19
aI21
aI0
aI0
aI0
aI21
aI17
aI16
aI21
aI16
aI19
aI18
aI16
aI20
aI16
aI20
aI20
aI0
aI16
aI16
aI21
aI16
aI0
aI16
aI0
aI19
aI16
aI20
aI19
aI0
aI21
aI19
aI20
aI0
aI21
aI0
aI16
aI16
aI21
aI16
aI18
aI21
aI16
aI16
aI21
aI16
aI20
aI20
aI17
aI16
aI16
aI16
aI16
aI16
aI21
aI0
aI19
aI0
aI21
aI16
aI21
aI20
aI21
aI19
aI0
aI19
aI16
aI16
aI0
aI0
aI21
aI16
aI0
aI21
aI17
aI21
aI16
aI20
aI16
aI0
aI0
aI20
aI16
aI16
aI20
aI0
aI17
aI16
aI21
aI16
aI18
aI16
aI0
aI16
aI18
aI20
aI21
aI20
aI16
aI16
aI19
aI21
aI20
aI16
aI0
aI16
aI21
aI18
aI17
aI21
aI19
aI19
aI18
aI19
aI17
aI21
aI18
aI16
aI16
aI16
aI20
aI0
aI19
aI0
aI21
aI17
aI16
aI19
aI17
aI0
aI19
aI20
aI20
aI16
aI16
aI16
aI16
aI16
aI16
aI19
aI21
aI19
aI20
aI20
aI19
aI17
aI17
aI0
aI0
aI17
aI16
aI16
aI16
aI20
aI16
aI16
aI16
aI20
aI0
aI0
aI21
aI20
aI16
aI0
aI16
aI21
aI21
aI0
aI21
aI19
aI0
aI0
aI16
aI16
aI20
aI21
aI21
aI16
aI18
aI16
aI16
aI16
aI16
aI19
aI16
aI19
aI16
aI16
aI0
aI21
aI21
aI20
aI18
aI16
aI20
aI20
aI18
aI16
aI0
aI20
aI21
aI16
aI0
aI20
aI18
aI19
aI16
aI20
aI16
aI21
aI21
aI20
aI16
aI16
aI20
aI18
aI21
aI16
aI18
aI20
aI17
aI0
aI16
aI19
aI0
aI16
aI16
aI21
aI16
aI19
aI18
aI16
aI16
aI21
aI20
aI16
aI19
aI21
aI17
aI0
aI21
aI16
aI16
aI20
aI21
aI0
aI20
aI18
aI0
aI16
aI19
aI19
aI16
aI19
aI16
aI16
aI16
aI16
aI21
aI18
aI17
aI16
aI20
aI0
aI17
aI16
aI21
aI16
aI0
aI19
aI17
aI16
aI16
aI20
aI18
aI16
aI16
aI16
aI21
aI0
aI20
aI16
aI16
aI16
aI18
aI16
aI19
aI19
aI20
aI21
aI21
aI19
aI16
aI16
aI21
aI20
aI16
aI16
aI20
aI0
aI0
aI21
aI17
aI0
aI0
aI0
aI16
aI16
aI16
aI20
aI0
aI16
aI16
aI21
aI21
aI16
aI20
aI16
aI20
aI16
aI16
aI21
aI18
aI0
aI16
aI16
aI20
aI21
aI16
aI17
aI16
aI16
aI20
aI16
aI19
aI16
aI16
aI21
aI21
aI18
aI0
aI19
aI20
aI0
aI16
aI0
aI16
aI19
aI18
aI19
aI0
aI19
aI20
aI16
aI0
aI16
aI0
aI0
aI19
aI18
aI17
aI16
aI16
aI21
aI19
aI16
aI16
aI16
aI0
aI0
aI21
aI0
aI19
aI16
aI16
aI0
aI0
aI17
aI21
aI18
aI16
aI16
aI21
aI21
aI0
aI16
aI16
aI16
aI16
aI21
aI0
aI19
aI20
aI0
aI16
aI20
aI19
aI19
aI19
aI16
aI0
aI16
aI16
aI16
aI16
aI19
aI21
aI0
aI0
aI21
aI19
aI16
aI0
aI19
aI21
aI17
aI16
aI17
aI0
aI0
aI21
aI0
aI20
aI17
aI16
aI19
aI16
aI16
aI21
aI20
aI21
aI21
aI18
aI16
aI16
aI16
aI16
aI16
aI0
aI16
aI18
aI16
aI16
aI0
aI16
aI21
aI17
aI16
aI17
aI16
aI20
aI21
aI0
aI21
aI17
aI16
aI19
aI0
aI0
aI19
aI0
aI16
aI20
aI20
aI21
aI20
aI16
aI21
aI16
aI20
aI21
aI18
aI16
aI0
aI16
aI16
aI16
aI16
aI20
aI21
aI0
aI16
aI0
aI16
aI16
aI16
aI0
aI20
aI17
aI0
aI21
aI0
aI19
aI20
aI16
aI16
aI20
aI20
aI21
aI17
aI21
aI16
aI19
aI17
aI16
aI16
aI0
aI16
aI16
aI19
aI20
aI0
aI16
aI16
aI16
aI16
aI0
aI16
aI16
aI20
aI0
aI19
aI17
aI16
aI16
aI16
aI0
aI0
aI16
aI16
aI21
aI16
aI16
aI0
aI21
aI21
aI18
aI19
aI16
aI21
aI19
aI21
aI16
aI0
aI16
aI0
aI16
aI21
aI21
aI16
aI19
aI20
aI21
aI21
aI18
aI16
aI18
aI19
aI16
aI16
aI0
aI17
aI18
aI16
aI16
aI19
aI20
aI19
aI0
aI20
aI19
aI19
aI20
aI0
aI16
aI19
aI0
aI21
aI16
aI19
aI0
aI17
aI17
aI21
aI16
aI16
aI21
aI21
aI17
aI17
aI0
aI16
aI20
aI19
aI0
aI19
aI17
aI16
aI16
aI0
aI0
aI17
aI0
aI16
aI16
aI16
aI0
aI19
aI19
aI16
aI21
aI16
aI0
aI19
aI16
aI21
aI17
aI21
aI16
aI16
aI0
aI19
aI0
aI16
aI16
aI19
aI21
aI16
aI18
aI16
aI0
aI21
aI0
aI16
aI20
aI16
aI16
aI16
aI17
aI21
aI21
aI18
aI16
aI16
aI16
aI21
aI20
aI0
aI16
aI19
aI16
aI19
aI20
aI21
aI20
aI20
aI16
aI21
aI18
aI19
aI16
aI16
aI21
aI21
aI16
aI16
aI0
aI17
aI19
aI0
aI16
aI21
aI17
aI0
aI16
aI16
aI16
aI17
aI16
aI0
aI17
aI18
aI17
aI21
aI21
aI19
aI20
aI16
aI21
aI19
aI21
aI16
aI19
aI16
aI16
aI16
aI16
aI21
aI21
aI20
aI16
aI17
aI20
aI16
aI19
aI20
aI0
aI20
aI19
aI21
aI0
aI16
aI16
aI0
aI0
aI18
aI17
aI21
aI19
aI17
aI21
aI16
aI20
aI16
aI21
aI16
aI16
aI16
aI0
aI18
aI19
aI0
aI0
aI19
aI21
aI17
aI16
aI16
aI0
aI16
aI16
aI16
aI19
aI16
aI21
aI0
aI16
aI16
aI20
aI21
aI16
aI0
aI16
aI21
aI17
aI0
aI21
aI21
aI16
aI0
aI16
aI16
aI21
aI16
aI18
aI16
aI16
aI19
aI20
aI21
aI0
aI21
aI0
aI21
aI16
aI16
aI18
aI20
aI21
aI16
aI16
aI16
aI16
aI21
aI19
aI16
aI0
aI21
aI16
aI0
aI21
aI18
aI19
aI16
aI19
aI16
aI16
aI16
aI16
aI16
aI16
aI16
aI16
aI16
aI16
aI19
aI16
aI18
aI21
aI20
aI16
aI20
aI21
aI16
aI0
aI0
aI16
aI21
aI19
aI21
aI17
aI16
aI16
aI19
aI16
aI21
aI16
aI16
aI16
aI21
aI16
aI16
aI16
aI19
aI21
aI19
aI20
aI21
aI19
aI0
aI21
aI16
aI21
aI19
aI21
aI16
aI16
aI17
aI17
aI18
aI16
aI20
aI0
aI21
aI0
aI17
aI18
aI16
aI16
aI21
aI21
aI16
aI18
aI17
aI0
aI21
aI20
aI21
aI21
aI16
aI20
aI19
aI18
aI21
aI19
aI16
aI17
aI20
aI21
aI19
aI0
aI0
aI20
aI21
aI19
aI0
aI21
aI16
aI21
aI19
aI16
aI16
aI21
aI16
aI16
aI16
aI17
aI0
aI20
aI17
aI16
aI0
aI21
aI9
aI18
aI0
aI16
aI19
aI0
aI20
aI16
aI16
aI19
aI17
aI16
aI21
aI21
aI16
aI0
aI19
aI20
aI20
aI16
aI19
aI16
aI16
aI18
aI19
aI21
aI16
aI21
aI20
aI21
aI21
aI16
aI20
aI21
aI20
aI21
aI16
aI17
aI21
aI16
aI0
aI16
aI19
aI16
aI16
aI20
aI21
aI19
aI18
aI17
aI17
aI21
aI17
aI16
aI19
aI16
aI19
aI16
aI0
aI0
aI0
aI17
aI0
aI18
aI16
aI0
aI17
aI0
aI0
aI17
aI21
aI21
aI20
aI19
aI21
aI0
aI21
aI21
aI16
aI20
aI16
aI16
aI21
aI16
aI0
aI19
aI21
aI19
aI16
aI0
aI16
aI0
aI16
aI20
aI16
aI17
aI20
aI0
aI16
aI0
aI18
aI21
aI19
aI16
aI16
aI16
aI0
aI20
aI20
aI0
aI19
aI16
aI16
aI0
aI20
aI0
aI20
aI0
aI21
aI18
aI19
aI16
aI16
aI21
aI20
aI14
aI16
aI19
aI0
aI0
aI16
aI19
aI16
aI20
aI16
aI21
aI17
aI0
aI17
aI18
aI16
aI16
aI16
aI16
aI19
aI16
aI16
aI0
aI21
aI20
aI16
aI21
aI21
aI16
aI16
aI21
aI16
aI16
aI16
aI0
aI0
aI21
aI16
aI20
aI16
aI0
aI0
aI18
aI16
aI0
aI18
aI16
aI16
aI19
aI16
aI21
aI16
aI18
aI16
aI16
aI21
aI18
aI17
aI17
aI16
aI16
aI16
aI16
aI16
aI0
aI21
aI16
aI0
aI16
aI0
aI18
aI17
aI16
aI0
aI0
aI16
aI16
aI17
aI16
aI16
aI21
aI21
aI17
aI18
aI20
aI16
aI17
aI16
aI0
aI0
aI20
aI18
aI19
aI0
aI18
aI0
aI0
aI0
aI21
aI16
aI16
aI0
aI20
aI20
aI18
aI0
aI21
aI21
aI20
aI16
aI0
aI16
aI20
aI21
aI16
aI16
aI16
aI0
aI16
aI16
aI16
aI16
aI0
aI0
aI21
aI0
aI16
aI21
aI21
aI20
aI16
aI18
aI0
aI19
aI16
aI20
aI19
aI16
aI16
aI21
aI16
aI16
aI16
aI0
aI16
aI21
aI16
aI21
aI16
aI19
aI0
aI0
aI21
aI21
aI16
aI16
aI18
aI16
aI0
aI21
aI16
aI0
aI21
aI0
aI0
aI20
aI20
aI0
aI21
aI18
aI21
aI16
aI16
aI17
aI0
aI0
aI17
aI16
aI16
aI16
aI16
aI17
aI21
aI21
aI19
aI17
aI21
aI0
aI0
aI0
aI18
aI20
aI0
aI16
aI0
aI21
aI20
aI17
aI18
aI21
aI18
aI20
aI21
aI0
aI19
aI0
aI16
aI0
aI20
aI18
aI18
aI20
aI19
aI21
aI16
aI16
aI20
aI21
aI0
aI16
aI16
aI16
aI17
aI18
aI16
aI16
aI21
aI16
aI16
aI16
aI20
aI19
aI21
aI21
aI0
aI17
aI17
aI0
aI0
aI16
aI0
aI0
aI16
aI0
aI16
aI18
aI16
aI21
aI16
aI19
aI16
aI16
aI18
aI21
aI16
aI16
aI21
aI19
aI18
aI0
aI19
aI16
aI21
aI21
aI16
aI21
aI19
aI0
aI0
aI20
aI0
aI16
aI16
aI16
aI21
aI21
aI0
aI19
aI21
aI21
aI16
aI21
aI16
aI0
aI20
aI20
aI21
aI20
aI0
aI0
aI16
aI18
aI20
aI16
aI20
aI16
aI17
aI20
aI20
aI16
aI16
aI0
aI21
aI16
aI16
aI19
aI17
aI0
aI16
aI16
aI21
aI21
aI16
aI21
aI16
aI0
aI19
aI16
aI16
aI16
aI16
aI21
aI0
aI16
aI16
aI21
aI16
aI16
aI16
aI19
aI0
aI21
aI16
aI16
aI0
aI21
aI16
aI0
aI16
aI16
aI16
aI21
aI16
aI0
aI17
aI0
aI20
aI18
aI0
aI19
aI21
aI21
aI16
aI20
aI20
aI21
aI19
aI16
aI0
aI16
aI20
aI16
aI0
aI16
aI21
aI20
aI21
aI0
aI21
aI21
aI19
aI20
aI0
aI16
aI19
aI16
aI19
aI0
aI20
aI17
aI16
aI16
aI21
aI19
aI18
aI19
aI16
aI19
aI16
aI16
aI18
aI16
aI16
aI16
aI16
aI16
aI21
aI18
aI0
aI16
aI18
aI16
aI21
aI20
aI16
aI19
aI18
aI0
aI16
aI21
aI16
aI16
aI0
aI19
aI20
aI21
aI21
aI21
aI21
aI16
aI16
aI16
aI20
aI19
aI16
aI16
aI19
aI21
aI0
aI16
aI16
aI21
aI16
aI0
aI16
aI21
aI19
aI19
aI16
aI16
aI0
aI21
aI20
aI0
aI0
aI17
aI16
aI20
aI16
aI16
aI21
aI0
aI16
aI21
aI16
aI16
aI16
aI0
aI21
aI21
aI21
aI16
aI0
aI16
aI0
aI20
aI17
aI0
aI20
aI21
aI21
aI16
aI16
aI18
aI16
aI21
aI16
aI16
aI16
aI16
aI16
aI16
aI21
aI0
aI16
aI20
aI16
aI19
aI16
aI18
aI21
aI0
aI20
aI21
aI16
aI16
aI21
aI16
aI0
aI20
aI16
aI21
aI0
aI16
aI16
aI21
aI16
aI21
aI21
aI20
aI18
aI20
aI16
aI16
aI16
aI17
aI20
aI18
aI21
aI0
aI17
aI16
aI0
aI0
aI21
aI17
aI16
aI19
aI21
aI16
aI17
aI18
aI0
aI0
aI17
aI21
aI20
aI21
aI21
aI16
aI16
aI20
aI19
aI0
aI21
aI19
aI16
aI19
aI16
aI16
aI16
aI21
aI20
aI18
aI0
aI0
aI16
aI16
aI16
aI16
aI16
aI0
aI17
aI16
aI18
aI16
aI17
aI21
aI21
aI16
aI16
aI16
aI0
aI17
aI20
aI19
aI16
aI20
aI19
aI0
aI16
aI16
aI19
aI16
aI17
aI18
aI17
aI20
aI0
aI16
aI0
aI18
aI19
aI16
aI21
aI21
aI19
aI16
aI0
aI0
aI16
aI17
aI19
aI17
aI16
aI17
aI19
aI16
aI16
aI16
aI20
aI21
aI16
aI17
aI20
aI20
aI16
aI16
aI0
aI19
aI16
aI21
aI17
aI21
aI0
aI19
aI19
aI16
aI21
aI0
aI16
aI21
aI16
aI19
aI20
aI19
aI19
aI19
aI21
aI19
aI16
aI16
aI16
aI16
aI21
aI18
aI0
aI16
aI21
aI21
aI16
aI17
aI18
aI17
aI19
aI16
aI16
aI20
aI18
aI0
aI21
aI16
aI21
aI21
aI16
aI17
aI20
aI0
aI16
aI16
aI21
aI0
aI19
aI16
aI0
aI16
aI16
aI21
aI20
aI16
aI16
aI18
aI20
aI19
aI16
aI20
aI16
aI16
aI20
aI0
aI21
aI19
aI16
aI21
aI18
aI16
aI20
aI16
aI19
aI19
aI16
aI0
aI19
aI16
aI0
aI19
aI16
aI16
aI16
aI16
aI0
aI16
aI17
aI18
aI0
aI19
aI0
aI21
aI0
aI0
aI0
aI0
aI16
aI16
aI16
aI16
aI19
aI21
aI0
aI20
aI21
aI19
aI0
aI16
aI19
aI19
aI0
aI19
aI16
aI21
aI16
aI20
aI0
aI16
aI16
aI21
aI19
aI16
aI16
aI21
aI17
aI0
aI21
aI20
aI21
aI17
aI19
aI21
aI16
aI20
aI16
aI21
aI0
aI19
aI16
aI16
aI18
aI20
aI16
aI16
aI20
aI16
aI0
aI21
aI19
aI16
aI21
aI21
aI17
aI20
aI16
aI0
aI0
aI16
aI16
aI0
aI21
aI19
aI16
aI20
aI20
aI16
aI20
aI16
aI0
aI0
aI16
aI0
aI18
aI16
aI19
aI0
aI21
aI0
aI16
aI19
aI0
aI20
aI16
aI16
aI16
aI17
aI16
aI0
aI16
aI16
aI16
aI16
aI21
aI21
aI20
aI20
aI0
aI16
aI20
aI21
aI16
aI18
aI19
aI20
aI16
aI16
aI0
aI17
aI21
aI19
aI19
aI16
aI16
aI16
aI0
aI16
aI16
aI16
aI17
aI16
aI0
aI18
aI16
aI21
aI16
aI16
aI20
aI16
aI16
aI16
aI0
aI0
aI16
aI0
aI20
aI19
aI16
aI19
aI16
aI19
aI16
aI16
aI21
aI0
aI21
aI16
aI20
aI21
aI0
aI0
aI0
aI16
aI21
aI19
aI0
aI17
aI16
aI16
aI16
aI16
aI21
aI16
aI20
aI16
aI16
aI18
aI16
aI18
aI16
aI16
aI19
aI17
aI16
aI16
aI21
aI16
aI0
aI16
aI17
aI17
aI16
aI0
aI21
aI19
aI16
aI21
aI19
aI16
aI16
aI16
aI21
aI16
aI20
aI19
aI16
aI0
aI19
aI0
aI16
aI16
aI0
aI0
aI19
aI16
aI0
aI16
aI21
aI21
aI21
aI18
aI20
aI16
aI16
aI0
aI0
aI0
aI21
aI18
aI17
aI0
aI19
aI16
aI16
aI21
aI21
aI21
aI17
aI21
aI0
aI16
aI21
aI19
aI16
aI16
aI21
aI16
aI16
aI0
aI16
aI0
aI16
aI19
aI11
aI21
aI16
aI21
aI0
aI21
aI19
aI18
aI21
aI0
aI16
aI0
aI17
aI16
aI16
aI16
aI0
aI16
aI0
aI17
aI20
aI0
aI17
aI16
aI0
aI12
aI21
aI17
aI16
aI17
aI16
aI19
aI21
aI20
aI16
aI19
aI16
aI21
aI21
aI17
aI0
aI16
aI21
aI17
aI16
aI21
aI0
aI16
aI21
aI16
aI16
aI20
aI0
aI16
aI21
aI16
aI16
aI16
aI21
aI0
aI16
aI16
aI16
aI16
aI21
aI16
aI16
aI0
aI20
aI16
aI16
aI18
aI16
aI19
aI16
aI19
aI21
aI16
aI16
aI20
aI16
aI16
aI0
aI21
aI0
aI16
aI21
aI19
aI21
aI0
aI20
aI20
aI19
aI21
aI16
aI16
aI21
aI0
aI20
aI16
aI21
aI20
aI17
aI0
aI16
aI16
aI21
aI0
aI0
aI0
aI19
aI0
aI16
aI0
aI16
aI20
aI17
aI0
aI20
aI21
aI20
aI17
aI0
aI16
aI21
aI16
aI0
aI16
aI16
aI16
aI0
aI21
aI16
aI0
aI0
aI21
aI16
aI19
aI19
aI0
aI16
aI16
aI0
aI19
aI16
aI20
aI17
aI21
aI20
aI16
aI21
aI0
aI16
aI21
aI0
aI16
aI16
aI19
aI21
aI16
aI19
aI19
aI20
aI17
aI16
aI16
aI16
aI17
aI17
aI0
aI16
aI19
aI16
aI0
aI20
aI18
aI16
aI16
aI16
aI16
aI19
aI20
aI21
aI16
aI21
aI16
aI21
aI19
aI0
aI19
aI19
aI21
aI21
aI0
aI21
aI21
aI19
aI17
aI20
aI21
aI16
aI16
aI20
aI17
aI20
aI0
aI16
aI0
aI0
aI21
aI16
aI18
aI0
aI16
aI18
aI17
aI16
aI17
aI16
aI20
aI18
aI16
aI16
aI17
aI18
aI17
aI18
aI16
aI16
aI20
aI18
aI21
aI16
aI20
aI20
aI0
aI0
aI20
aI17
aI21
aI20
aI19
aI21
aI19
aI20
aI21
aI0
aI17
aI0
aI0
aI16
aI0
aI0
aI21
aI16
aI0
aI20
aI19
aI20
aI0
aI0
aI19
aI0
aI21
aI20
aI0
aI21
aI16
aI16
aI0
aI21
aI16
aI16
aI20
aI16
aI0
aI16
aI21
aI20
aI0
aI16
aI16
aI16
aI18
aI19
aI18
aI0
aI16
aI16
aI21
aI19
aI21
aI21
aI0
aI19
aI16
aI16
aI19
aI16
aI18
aI18
aI16
aI0
aI17
aI0
aI16
aI0
aI0
aI16
aI20
aI0
aI21
aI0
aI18
aI0
aI16
aI19
aI18
aI0
aI16
aI16
aI21
aI21
aI18
aI16
aI21
aI21
aI21
aI17
aI19
aI16
aI19
aI0
aI16
aI16
aI16
aI21
aI16
aI21
aI16
aI0
aI16
aI16
aI21
aI16
aI20
aI21
aI16
aI0
aI17
aI21
aI0
aI16
aI17
aI16
aI20
aI16
aI20
aI16
aI20
aI16
aI0
aI21
aI17
aI21
aI16
aI16
aI19
aI21
aI21
aI20
aI16
aI16
aI0
aI0
aI21
aI20
aI0
aI19
aI19
aI0
aI16
aI16
aI0
aI19
aI0
aI16
aI16
aI19
aI17
aI16
aI21
aI0
aI16
aI21
aI17
aI16
aI18
aI16
aI19
aI16
aI21
aI0
aI0
aI16
aI0
aI21
aI16
aI16
aI16
aI16
aI0
aI21
aI19
aI18
aI16
aI16
aI20
aI16
aI16
aI16
aI19
aI20
aI16
aI17
aI17
aI0
aI21
aI17
aI0
aI21
aI17
aI0
aI19
aI20
aI16
aI19
aI16
aI16
aI21
aI16
aI16
aI16
aI0
aI16
aI20
aI21
aI16
aI18
aI19
aI0
aI20
aI16
aI16
aI17
aI21
aI19
aI21
aI16
aI16
aI19
aI16
aI19
aI16
aI16
aI0
aI16
aI16
aI16
aI0
aI18
aI20
aI21
aI0
aI21
aI16
aI20
aI21
aI20
aI16
aI20
aI16
aI21
aI16
aI0
aI21
aI16
aI20
aI19
aI19
aI21
aI21
aI21
aI17
aI16
aI18
aI16
aI19
aI16
aI17
aI0
aI21
aI21
aI16
aI18
aI19
aI16
aI0
aI21
aI17
aI19
aI0
aI21
aI16
aI19
aI21
aI20
aI21
aI19
aI16
aI18
aI21
aI20
aI16
aI16
aI16
aI17
aI0
aI17
aI20
aI0
aI18
aI20
aI21
aI0
aI17
aI16
aI0
aI16
aI20
aI16
aI21
aI0
aI16
aI21
aI16
aI19
aI16
aI0
aI16
aI18
aI20
aI20
aI21
aI19
aI0
aI21
aI18
aI21
aI16
aI16
aI21
aI0
aI0
aI21
aI21
aI0
aI20
aI16
aI21
aI16
aI16
aI21
aI18
aI16
aI16
aI16
aI18
aI16
aI21
aI18
aI0
aI16
aI19
aI19
aI17
aI21
aI20
aI20
aI19
aI21
aI0
aI19
aI21
aI0
aI16
aI16
aI16
aI16
aI19
aI19
aI19
aI0
aI16
aI16
aI16
aI18
aI21
aI16
aI19
aI19
aI19
aI20
aI21
aI0
aI20
aI19
aI18
aI21
aI19
aI16
aI16
aI16
aI16
aI17
aI21
aI0
aI16
aI17
aI0
aI21
aI20
aI16
aI16
aI17
aI21
aI16
aI0
aI16
aI16
aI0
aI16
aI16
aI20
aI16
aI20
aI16
aI0
aI19
aI17
aI20
aI0
aI21
aI16
aI17
aI19
aI21
aI19
aI16
aI16
aI19
aI19
aI20
aI16
aI19
aI20
aI20
aI19
aI21
aI21
aI16
aI0
aI0
aI21
aI0
aI17
aI0
aI16
aI16
aI19
aI0
aI20
aI0
aI16
aI17
aI16
aI16
aI19
aI18
aI21
aI16
aI19
aI19
aI19
aI16
aI21
aI16
aI21
aI18
aI16
aI0
aI16
aI17
aI16
aI19
aI16
aI0
aI20
aI19
aI16
aI18
aI21
aI17
aI16
aI16
aI0
aI16
aI16
aI20
aI21
aI16
aI0
aI16
aI21
aI20
aI18
aI16
aI19
aI21
aI21
aI0
aI16
aI16
aI16
aI0
aI16
aI0
aI0
aI19
aI16
aI17
aI0
aI16
aI16
aI17
aI0
aI20
aI16
aI0
aI16
aI0
aI0
aI19
aI20
aI21
aI21
aI17
aI21
aI17
aI0
aI16
aI16
aI18
aI18
aI0
aI21
aI19
aI16
aI17
aI21
aI18
aI19
aI16
aI21
aI21
aI21
aI16
aI21
aI21
aI17
aI0
aI21
aI16
aI21
aI21
aI21
aI16
aI19
aI19
aI20
aI16
aI21
aI16
aI0
aI21
aI16
aI21
aI19
aI21
aI16
aI16
aI0
aI16
aI16
aI21
aI21
aI21
aI16
aI16
aI16
aI19
aI0
aI16
aI19
aI21
aI16
aI0
aI16
aI16
aI0
aI16
aI0
aI0
aI0
aI16
aI16
aI16
aI16
aI16
aI17
aI0
aI0
aI17
aI16
aI17
aI21
aI0
aI19
aI16
aI21
aI21
aI16
aI16
aI0
aI20
aI20
aI16
aI21
aI16
aI16
aI16
aI16
aI0
aI16
aI21
aI20
aI0
aI19
aI0
aI16
aI20
aI20
aI0
aI0
aI18
aI16
aI16
aI8
aI17
aI16
aI0
aI17
aI16
aI19
aI16
aI0
aI16
aI20
aI21
aI16
aI16
aI0
aI17
aI16
aI16
aI19
aI16
aI16
aI0
aI17
aI0
aI21
aI19
aI20
aI21
aI17
aI0
aI20
aI16
aI16
aI20
aI21
aI20
aI16
aI16
aI17
aI19
aI21
aI21
aI21
aI21
aI0
aI0
aI17
aI17
aI0
aI16
aI21
aI0
aI18
aI0
aI16
aI21
aI19
aI21
aI21
aI20
aI21
aI16
aI20
aI21
aI0
aI19
aI21
aI21
aI19
aI0
aI0
aI19
aI16
aI21
aI21
aI16
aI0
aI16
aI17
aI19
aI18
aI21
aI16
aI18
aI0
aI16
aI20
aI16
aI20
aI16
aI0
aI0
aI21
aI0
aI20
aI17
aI16
aI16
aI17
aI18
aI16
aI0
aI16
aI16
aI21
aI21
aI16
aI0
aI17
aI17
aI21
aI21
aI0
aI0
aI19
aI16
aI16
aI16
aI17
aI16
aI20
aI16
aI16
aI16
aI16
aI20
aI0
aI16
aI16
aI16
aI21
aI21
aI0
aI18
aI16
aI16
aI17
aI19
aI16
aI20
aI0
aI21
aI16
aI21
aI19
aI16
aI0
aI16
aI16
aI16
aI0
aI0
aI21
aI16
aI16
aI16
aI16
aI21
aI20
aI16
aI16
aI16
aI0
aI0
aI16
aI0
aI0
aI14
aI16
aI20
aI17
aI18
aI16
aI16
aI0
aI18
aI16
aI16
aI21
aI21
aI16
aI21
aI0
aI21
aI17
aI16
aI0
aI21
aI0
aI0
aI16
aI16
aI0
aI16
aI20
aI16
aI16
aI21
aI21
aI16
aI0
aI20
aI0
aI16
aI21
aI21
aI21
aI18
aI0
aI20
aI0
aI16
aI0
aI16
aI16
aI19
aI19
aI17
aI0
aI0
aI16
aI19
aI16
aI21
aI20
aI18
aI16
aI0
aI0
aI21
aI21
aI0
aI0
aI19
aI16
aI19
aI0
aI21
aI0
aI16
aI16
aI21
aI16
aI0
aI21
aI17
aI0
aI21
aI19
aI16
aI16
aI16
aI16
aI0
aI20
aI16
aI16
aI20
aI17
aI21
aI16
aI20
aI21
aI0
aI16
aI21
aI0
aI21
aI21
aI21
aI18
aI19
aI16
aI16
aI17
aI0
aI0
aI16
aI18
aI16
aI16
aI20
aI18
aI19
aI20
aI21
aI16
aI16
aI0
aI16
aI16
aI16
aI16
aI21
aI21
aI16
aI16
aI16
aI17
aI20
aI21
aI16
aI0
aI16
aI0
aI16
aI0
aI20
aI16
aI18
aI21
aI0
aI19
aI17
aI20
aI16
aI16
aI21
aI21
aI21
aI20
aI0
aI16
aI16
aI18
aI16
aI16
aI16
aI18
aI18
aI21
aI21
aI21
aI16
aI19
aI19
aI18
aI21
aI16
aI20
aI16
aI16
aI16
aI0
aI19
aI19
aI21
aI20
aI17
aI0
aI16
aI21
aI16
aI16
aI16
aI16
aI16
aI0
aI16
aI21
aI20
aI16
aI16
aI17
aI16
aI19
aI16
aI21
aI16
aI19
aI0
aI16
aI16
aI19
aI17
aI18
aI0
aI0
aI0
aI16
aI0
aI17
aI21
aI19
aI21
aI19
aI18
aI16
aI16
aI16
aI16
aI21
aI16
aI17
aI20
aI19
aI16
aI16
aI18
aI0
aI0
aI21
aI0
aI16
aI16
aI21
aI17
aI0
aI19
aI16
aI16
aI17
aI18
aI16
aI16
aI20
aI21
aI16
aI21
aI16
aI16
aI0
aI16
aI21
aI16
aI16
aI19
aI19
aI21
aI16
aI20
aI16
aI17
aI19
aI16
aI16
aI0
aI16
aI19
aI18
aI21
aI16
aI0
aI16
aI0
aI19
aI0
aI16
aI21
aI0
aI16
aI16
aI17
aI21
aI20
aI20
aI21
aI0
aI16
aI16
aI20
aI0
aI20
aI16
aI16
aI16
aI19
aI21
aI16
aI19
aI18
aI21
aI0
aI21
aI0
aI17
aI0
aI18
aI21
aI16
aI16
aI16
aI16
aI19
aI17
aI16
aI20
aI19
aI16
aI0
aI20
aI19
aI0
aI0
aI16
aI16
aI16
aI21
aI17
aI16
aI17
aI17
aI21
aI0
aI21
aI20
aI21
aI0
aI16
aI21
aI0
aI0
aI16
aI21
aI19
aI16
aI0
aI19
aI0
aI16
aI16
aI0
aI21
aI18
aI21
aI16
aI21
aI21
aI16
aI16
aI18
aI20
aI18
aI21
aI0
aI19
aI16
aI16
aI0
aI20
aI19
aI17
aI0
aI19
aI16
aI19
aI19
aI21
aI16
aI19
aI16
aI19
aI16
aI19
aI21
aI19
aI20
aI21
aI0
aI16
aI16
aI16
aI16
aI16
aI16
aI21
aI19
aI16
aI16
aI16
aI21
aI16
aI0
aI0
aI19
aI21
aI0
aI0
aI21
aI20
aI21
aI16
aI16
aI21
aI21
aI20
aI20
aI0
aI0
aI21
aI16
aI21
aI16
aI16
aI17
aI21
aI21
aI16
aI16
aI21
aI16
aI21
aI18
aI16
aI16
aI16
aI16
aI21
aI20
aI16
aI21
aI21
aI0
aI16
aI17
aI16
aI16
aI21
aI21
aI21
aI16
aI21
aI21
aI17
aI16
aI16
aI21
aI16
aI20
aI20
aI21
aI20
aI17
aI21
aI0
aI0
aI16
aI19
aI16
aI16
aI16
aI18
aI16
aI0
aI20
aI21
aI0
aI16
aI20
aI0
aI16
aI0
aI20
aI21
aI19
aI0
aI20
aI21
aI16
aI0
aI18
aI16
aI20
aI16
aI19
aI0
aI0
aI0
aI16
aI16
aI16
aI16
aI19
aI18
aI18
aI21
aI0
aI16
aI18
aI17
aI17
aI20
aI21
aI20
aI21
aI16
aI21
aI18
aI17
aI16
aI0
aI16
aI16
aI21
aI16
aI16
aI21
aI16
aI0
aI20
aI16
aI21
aI16
aI19
aI0
aI16
aI16
aI19
aI0
aI19
aI0
aI16
aI0
aI21
aI19
aI0
aI16
aI16
aI16
aI19
aI21
aI16
aI21
aI16
aI16
aI20
aI21
aI21
aI16
aI16
aI21
aI19
aI20
aI16
aI16
aI18
aI16
aI19
aI19
aI21
aI16
aI21
aI16
aI21
aI19
aI16
aI0
aI0
aI21
aI21
aI0
aI16
aI0
aI19
aI21
aI19
aI16
aI21
aI18
aI20
aI21
aI20
aI18
aI16
aI0
aI0
aI16
aI16
aI16
aI20
aI21
aI16
aI16
aI21
aI21
aI16
aI16
aI16
aI16
aI20
aI21
aI16
aI16
aI16
aI20
aI17
aI16
aI20
aI16
aI16
aI16
aI16
aI17
aI21
aI0
aI16
aI16
aI21
aI16
aI20
aI18
aI16
aI19
aI0
aI16
aI21
aI0
aI16
aI16
aI20
aI16
aI20
aI21
aI20
aI16
aI21
aI21
aI17
aI16
aI0
aI20
aI16
aI19
aI20
aI16
aI16
aI21
aI19
aI16
aI16
aI20
aI21
aI20
aI16
aI19
aI16
aI18
aI16
aI0
aI18
aI17
aI21
aI21
aI16
aI16
aI0
aI16
aI16
aI21
aI21
aI0
aI17
aI16
aI20
aI21
aI16
aI0
aI16
aI0
aI0
aI17
aI16
aI0
aI0
aI21
aI19
aI20
aI16
aI20
aI20
aI21
aI0
aI16
aI16
aI20
aI21
aI16
aI21
aI19
aI16
aI20
aI0
aI0
aI16
aI21
aI21
aI21
aI16
aI16
aI18
aI0
aI19
aI21
aI21
aI16
aI0
aI0
aI17
aI16
aI17
aI17
aI19
aI20
aI16
aI19
aI18
aI18
aI18
aI21
aI17
aI0
aI19
aI20
aI16
aI21
aI16
aI19
aI16
aI21
aI21
aI16
aI21
aI0
aI19
aI0
aI16
aI21
aI21
aI16
aI16
aI0
aI0
aI19
aI16
aI20
aI16
aI21
aI18
aI0
aI16
aI20
aI16
aI21
aI0
aI16
aI16
aI16
aI18
aI16
aI16
aI18
aI19
aI0
aI16
aI21
aI19
aI21
aI16
aI16
aI18
aI16
aI16
aI20
aI16
aI0
aI17
aI0
aI19
aI0
aI21
aI19
aI21
aI21
aI20
aI20
aI21
aI19
aI16
aI16
aI0
aI16
aI16
aI16
aI16
aI21
aI21
aI16
aI19
aI16
aI21
aI16
aI16
aI18
aI20
aI21
aI16
aI0
aI19
aI16
aI0
aI19
aI19
aI19
aI21
aI16
aI16
aI16
aI21
aI21
aI17
aI21
aI17
aI16
aI20
aI19
aI19
aI16
aI16
aI16
aI17
aI0
aI0
aI16
aI18
aI21
aI21
aI17
aI20
aI16
aI0
aI16
aI16
aI0
aI16
aI16
aI16
aI21
aI21
aI16
aI20
aI16
aI0
aI16
aI16
aI21
aI16
aI16
aI16
aI18
aI19
aI0
aI21
aI16
aI20
aI16
aI21
aI21
aI16
aI16
aI0
aI21
aI21
aI16
aI20
aI0
aI0
aI16
aI17
aI19
aI17
aI16
aI20
aI21
aI16
aI16
aI17
aI16
aI16
aI16
aI19
aI19
aI16
aI19
aI19
aI0
aI16
aI0
aI16
aI19
aI16
aI16
aI19
aI19
aI20
aI16
aI19
aI19
aI21
aI21
aI16
aI16
aI16
aI17
aI16
aI17
aI0
aI16
aI16
aI21
aI21
aI21
aI16
aI19
aI16
aI16
aI21
aI16
aI16
aI21
aI18
aI19
aI19
aI18
aI16
aI16
aI16
aI21
aI16
aI16
aI17
aI16
aI17
aI20
aI21
aI19
aI21
aI21
aI19
aI16
aI16
aI20
aI16
aI20
aI19
aI19
aI16
aI18
aI16
aI16
aI0
aI21
aI16
aI16
aI21
aI21
aI16
aI21
aI16
aI16
aI21
aI0
aI21
aI20
aI0
aI21
aI21
aI21
aI0
aI16
aI0
aI18
aI0
aI16
aI0
aI16
aI21
aI16
aI20
aI20
aI20
aI21
aI21
aI0
aI16
aI21
aI19
aI16
aI20
aI16
aI16
aI16
aI21
aI20
aI0
aI0
aI19
aI20
aI17
aI16
aI21
aI16
aI17
aI20
aI21
aI16
aI21
aI16
aI21
aI18
aI21
aI20
aI20
aI19
aI21
aI0
aI16
aI19
aI0
aI16
aI21
aI16
aI21
aI16
aI18
aI19
aI16
aI16
aI20
aI16
aI19
aI18
aI20
aI0
aI21
aI18
aI0
aI21
aI16
aI16
aI20
aI21
aI21
aI0
aI19
aI21
aI0
aI19
aI16
aI20
aI17
aI16
aI0
aI16
aI0
aI0
aI21
aI16
aI20
aI0
aI0
aI21
aI0
aI19
aI21
aI16
aI0
aI0
aI16
aI0
aI20
aI21
aI0
aI16
aI16
aI20
aI20
aI16
aI16
aI16
aI16
aI16
aI21
aI16
aI18
aI16
aI18
aI21
aI19
aI18
aI16
aI20
aI21
aI0
aI0
aI16
aI0
aI16
aI17
aI16
aI21
aI19
aI16
aI16
aI16
aI18
aI21
aI17
aI19
aI16
aI16
aI20
aI20
aI20
aI0
aI0
aI0
aI19
aI18
aI16
aI17
aI17
aI17
aI0
aI17
aI20
aI16
aI0
aI21
aI21
aI16
aI0
aI19
aI16
aI0
aI16
aI0
aI20
aI21
aI0
aI19
aI16
aI16
aI16
aI19
aI16
aI0
aI16
aI18
aI19
aI20
aI0
aI19
aI0
aI16
aI16
aI20
aI16
aI18
aI16
aI19
aI0
aI21
aI21
aI21
aI0
aI16
aI21
aI16
aI20
aI21
aI21
aI16
aI0
aI16
aI16
aI16
aI16
aI16
aI0
aI21
aI18
aI18
aI20
aI0
aI18
aI17
aI0
aI16
aI16
aI16
aI0
aI18
aI18
aI16
aI21
aI0
aI20
aI16
aI16
aI20
aI16
aI16
aI0
aI16
aI0
aI18
aI21
aI0
aI0
aI20
aI21
aI16
aI16
aI16
aI16
aI16
aI0
aI19
aI20
aI19
aI21
aI16
aI21
aI16
aI21
aI16
aI20
aI21
aI16
aI16
aI20
aI19
aI17
aI21
aI21
aI0
aI0
aI21
aI20
aI19
aI0
aI16
aI16
aI19
aI21
aI16
aI21
aI16
aI16
aI19
aI16
aI19
aI19
aI16
aI19
aI19
aI0
aI21
aI19
aI16
aI21
aI20
aI20
aI16
aI16
aI16
aI21
aI16
aI19
aI0
aI16
aI0
aI16
aI19
aI18
aI21
aI19
aI16
aI21
aI16
aI17
aI21
aI16
aI16
aI20
aI16
aI16
aI16
aI18
aI16
aI16
aI20
aI16
aI0
aI20
aI21
aI0
aI16
aI16
aI20
aI0
aI16
aI0
aI16
aI20
aI16
aI18
aI20
aI16
aI16
aI0
aI16
aI21
aI16
aI0
aI0
aI18
aI16
aI17
aI16
aI21
aI21
aI17
aI21
aI16
aI21
aI16
aI16
aI20
aI21
aI0
aI21
aI16
aI19
aI18
aI0
aI20
aI0
aI16
aI16
aI21
aI21
aI16
aI20
aI16
aI16
aI21
aI19
aI16
aI19
aI16
aI16
aI16
aI16
aI21
aI0
aI16
aI20
aI21
aI16
aI21
aI16
aI0
aI0
aI19
aI19
aI0
aI16
aI21
aI16
aI16
aI0
aI0
aI16
aI16
aI17
aI18
aI21
aI19
aI16
aI16
aI21
aI16
aI20
aI19
aI0
aI21
aI21
aI20
aI21
aI16
aI18
aI20
aI18
aI16
aI16
aI21
aI18
aI16
aI0
aI19
aI16
aI16
aI21
aI21
aI21
aI18
aI0
aI16
aI16
aI16
aI21
aI16
aI16
aI16
aI16
aI0
aI16
aI16
aI19
aI16
aI16
aI16
aI21
aI20
aI18
aI17
aI21
aI16
aI20
aI16
aI16
aI16
aI20
aI17
aI16
aI16
aI19
aI17
aI16
aI16
aI20
aI21
aI21
aI0
aI21
aI21
aI19
aI19
aI16
aI19
aI0
aI18
aI16
aI16
aI21
aI21
aI19
aI16
aI6
aI21
aI19
aI16
aI0
aI16
aI16
aI19
aI21
aI16
aI0
aI16
aI16
aI16
aI20
aI19
aI19
aI21
aI16
aI20
aI16
aI0
aI17
aI16
aI16
aI0
aI17
aI16
aI16
aI21
aI0
aI17
aI16
aI19
aI16
aI20
aI16
aI19
aI21
aI16
aI16
aI21
aI19
aI20
aI0
aI0
aI20
aI20
aI16
aI0
aI16
aI21
aI0
aI16
aI16
aI16
aI16
aI20
aI0
aI21
aI18
aI17
aI21
aI19
aI20
aI0
aI19
aI21
aI16
aI0
aI21
aI17
aI21
aI0
aI16
aI16
aI21
aI18
aI0
aI21
aI16
aI21
aI0
aI0
aI21
aI20
aI17
aI16
aI20
aI19
aI16
aI16
aI16
aI16
aI21
aI16
aI21
aI21
aI21
aI20
aI0
aI17
aI16
aI21
aI16
aI21
aI21
aI16
aI21
aI21
aI16
aI21
aI0
aI0
aI18
aI16
aI16
aI16
aI17
aI19
aI21
aI0
aI16
aI0
aI21
aI21
aI19
aI21
aI21
aI16
aI21
aI21
aI21
aI16
aI16
aI21
aI16
aI21
aI20
aI16
aI16
aI20
aI16
aI20
aI16
aI19
aI0
aI21
aI16
aI20
aI16
aI16
aI16
aI21
aI0
aI0
aI16
aI16
aI21
aI16
aI19
aI0
aI16
aI21
aI16
aI21
aI0
aI19
aI21
aI17
aI16
aI21
aI20
aI0
aI21
aI16
aI0
aI19
aI16
aI16
aI20
aI0
aI20
aI21
aI20
aI21
aI19
aI20
aI16
aI0
aI16
aI0
aI16
aI19
aI16
aI0
aI0
aI0
aI16
aI0
aI20
aI16
aI21
aI16
aI21
aI21
aI17
aI0
aI16
aI16
aI0
aI0
aI19
aI0
aI16
aI20
aI0
aI17
aI16
aI21
aI19
aI16
aI16
aI16
aI16
aI16
aI0
aI21
aI16
aI21
aI19
aI21
aI20
aI20
aI16
aI16
aI19
aI0
aI16
aI19
aI19
aI0
aI0
aI17
aI17
aI16
aI21
aI20
aI16
aI21
aI20
aI0
aI20
aI0
aI19
aI21
aI21
aI19
aI16
aI21
aI0
aI20
aI16
aI16
aI16
aI16
aI16
aI16
aI16
aI0
aI21
aI21
aI19
aI17
aI16
aI0
aI16
aI16
aI16
aI17
aI16
aI19
aI16
aI17
aI19
aI16
aI16
aI16
aI16
aI16
aI0
aI16
aI0
aI20
aI19
aI19
aI16
aI16
aI0
aI16
aI16
aI16
aI21
aI18
aI16
aI16
aI20
aI19
aI16
aI16
aI21
aI16
aI16
aI16
aI0
aI16
aI21
aI16
aI16
aI18
aI20
aI18
aI21
aI19
aI20
aI17
aI16
aI19
aI16
aI16
aI21
aI16
aI16
aI17
aI19
aI16
aI16
aI21
aI16
aI19
aI18
aI18
aI16
aI16
aI20
aI16
aI16
aI17
aI16
aI16
aI16
aI21
aI0
aI21
aI18
aI16
aI16
aI19
aI19
aI21
aI17
aI16
aI19
aI0
aI20
aI21
aI16
aI16
aI21
aI16
aI16
aI16
aI20
aI21
aI20
aI0
aI20
aI16
aI0
aI21
aI16
aI19
aI19
aI0
aI20
aI0
aI18
aI16
aI21
aI16
aI21
aI16
aI19
aI16
aI21
aI20
aI19
aI16
aI0
aI16
aI0
aI16
aI20
aI16
aI21
aI18
aI18
aI19
aI0
aI16
aI0
aI0
aI16
aI21
aI16
aI16
aI0
aI0
aI16
aI0
aI16
aI16
aI21
aI16
aI16
aI21
aI16
aI16
aI16
aI16
aI17
aI0
aI16
aI0
aI16
aI21
aI18
aI16
aI17
aI16
aI16
aI16
aI19
aI0
aI16
aI0
aI20
aI19
aI16
aI16
aI17
aI16
aI0
aI20
aI16
aI21
aI21
aI16
aI16
aI16
aI19
aI16
aI19
aI21
aI20
aI0
aI19
aI18
aI21
aI16
aI16
aI0
aI16
aI19
aI16
aI16
aI21
aI16
aI18
aI21
aI17
aI0
aI16
aI19
aI17
aI17
aI19
aI19
aI16
aI20
aI0
aI20
aI16
aI16
aI21
aI0
aI17
aI20
aI21
aI16
aI21
aI16
aI16
aI0
aI16
aI18
aI21
aI16
aI0
aI16
aI16
aI19
aI16
aI16
aI18
aI21
aI16
aI18
aI0
aI16
aI21
aI20
aI0
aI21
aI16
aI19
aI19
aI0
aI0
aI16
aI21
aI16
aI20
aI16
aI16
aI20
aI16
aI21
aI17
aI20
aI17
aI21
aI20
aI0
aI17
aI16
aI21
aI16
aI16
aI16
aI20
aI0
aI21
aI16
aI0
aI16
aI21
aI21
aI16
aI0
aI0
aI0
aI21
aI21
aI19
aI20
aI16
aI20
aI0
aI16
aI16
aI16
aI21
aI18
aI0
aI0
aI0
aI18
aI16
aI18
aI21
aI19
aI0
aI16
aI0
aI0
aI20
aI16
aI18
aI20
aI0
aI20
aI21
aI21
aI16
aI0
aI16
aI19
aI19
aI20
aI0
aI19
aI16
aI21
aI20
aI0
aI20
aI18
aI20
aI16
aI0
aI19
aI0
aI18
aI20
aI16
aI0
aI19
aI21
aI18
aI16
aI16
aI16
aI16
aI21
aI16
aI21
aI0
aI0
aI21
aI21
aI21
aI20
aI20
aI21
aI0
aI19
aI16
aI17
aI17
aI20
aI16
aI19
aI17
aI21
aI20
aI16
aI16
aI0
aI19
aI19
aI0
aI21
aI21
aI16
aI16
aI16
aI19
aI16
aI16
aI21
aI21
aI16
aI20
aI19
aI16
aI19
aI16
aI16
aI16
aI21
aI19
aI16
aI16
aI17
aI21
aI16
aI20
aI21
aI0
aI16
aI21
aI16
aI16
aI17
aI19
aI21
aI16
aI20
aI20
aI20
aI16
aI19
aI21
aI16
aI17
aI16
aI20
aI20
aI21
aI16
aI16
aI16
aI16
aI19
aI0
aI16
aI19
aI16
aI16
aI0
aI0
aI19
aI18
aI16
aI21
aI16
aI16
aI21
aI16
aI0
aI17
aI19
aI21
aI16
aI21
aI21
aI21
aI16
aI16
aI18
aI17
aI21
aI0
aI0
aI16
aI16
aI20
aI0
aI21
aI21
aI16
aI21
aI16
aI20
aI18
aI16
aI19
aI17
aI16
aI20
aI19
aI20
aI19
aI0
aI16
aI16
aI17
aI18
aI21
aI20
aI0
aI16
aI0
aI20
aI16
aI21
aI16
aI16
aI16
aI21
aI16
aI21
aI16
aI16
aI16
aI0
aI16
aI21
aI0
aI16
aI16
aI0
aI0
aI16
aI16
aI21
aI21
aI21
aI17
aI21
aI16
aI16
aI17
aI20
aI21
aI0
aI19
aI16
aI21
aI19
aI16
aI21
aI16
aI16
aI0
aI0
aI16
aI16
aI16
aI16
aI16
aI0
aI20
aI20
aI16
aI21
aI21
aI0
aI16
aI16
aI20
aI16
aI19
aI0
aI20
aI21
aI0
aI0
aI21
aI21
aI18
aI18
aI21
aI21
aI16
aI16
aI17
aI16
aI21
aI16
aI16
aI16
aI16
aI0
aI16
aI0
aI0
aI16
aI16
aI20
aI16
aI16
aI20
aI18
aI0
aI16
aI16
aI17
aI20
aI0
aI16
aI17
aI21
aI21
aI20
aI19
aI16
aI16
aI19
aI21
aI0
aI21
aI16
aI16
aI17
aI16
aI17
aI0
aI16
aI19
aI18
aI0
aI16
aI16
aI16
aI16
aI17
aI21
aI17
aI21
aI18
aI16
aI19
aI18
aI16
aI16
aI19
aI21
aI16
aI20
aI21
aI19
aI0
aI17
aI16
aI20
aI17
aI16
aI21
aI16
aI0
aI16
aI21
aI16
aI21
aI0
aI20
aI19
aI0
aI16
aI17
aI21
aI16
aI16
aI21
aI19
aI21
aI0
aI19
aI16
aI19
aI16
aI21
aI18
aI0
aI17
aI20
aI21
aI19
aI0
aI18
aI16
aI21
aI0
aI20
aI16
aI17
aI21
aI20
aI21
aI20
aI16
aI0
aI21
aI0
aI16
aI0
aI16
aI16
aI16
aI16
aI0
aI16
aI16
aI20
aI16
aI16
aI17
aI16
aI20
aI18
aI0
aI17
aI16
aI0
aI17
aI21
aI19
aI16
aI0
aI16
aI16
aI18
aI16
aI16
aI16
aI17
aI0
aI21
aI0
aI16
aI16
aI16
aI19
aI21
aI16
aI16
aI16
aI19
aI0
aI20
aI17
aI21
aI21
aI4
aI0
aI21
aI0
aI16
aI19
aI21
aI16
aI0
aI16
aI0
aI21
aI16
aI20
aI21
aI16
aI19
aI18
aI18
aI21
aI20
aI19
aI0
aI20
aI18
aI17
aI16
aI16
aI0
aI17
aI16
aI21
aI21
aI16
aI19
aI0
aI21
aI19
aI21
aI0
aI21
aI16
aI18
aI21
aI0
aI0
aI18
aI16
aI0
aI16
aI20
aI0
aI16
aI16
aI20
aI21
aI0
aI0
aI16
aI19
aI20
aI16
aI19
aI21
aI20
aI16
aI16
aI20
aI19
aI0
aI16
aI17
aI0
aI16
aI21
aI19
aI16
aI16
aI17
aI18
aI19
aI16
aI17
aI16
aI0
aI20
aI16
aI0
aI19
aI16
aI16
aI19
aI0
aI16
aI19
aI16
aI21
aI0
aI0
aI20
aI15
aI16
aI16
aI17
aI21
aI16
aI16
aI19
aI21
aI16
aI21
aI0
aI21
aI16
aI16
aI20
aI16
aI16
aI16
aI18
aI18
aI21
aI21
aI21
aI16
aI17
aI16
aI0
aI16
aI18
aI16
aI16
aI17
aI20
aI18
aI0
aI0
aI21
aI0
aI16
aI16
aI16
aI19
aI0
aI16
aI20
aI20
aI0
aI19
aI21
aI19
aI0
aI0
aI17
aI0
aI20
aI17
aI0
aI16
aI16
aI21
aI0
aI16
aI21
aI16
aI20
aI16
aI0
aI21
aI16
aI21
aI16
aI20
aI18
aI16
aI0
aI16
aI20
aI16
aI16
aI19
aI16
aI16
aI20
aI18
aI16
aI16
aI16
aI18
aI0
aI0
aI16
aI0
aI20
aI21
aI16
aI16
aI16
aI16
aI16
aI0
aI16
aI0
aI20
aI21
aI21
aI19
aI16
aI16
aI16
aI0
aI16
aI16
aI16
aI20
aI20
aI16
aI21
aI16
aI0
aI19
aI19
aI0
aI16
aI16
aI18
aI16
aI21
aI21
aI0
aI16
aI16
aI21
aI18
aI17
aI16
aI16
aI0
aI0
aI0
aI21
aI21
aI0
aI21
aI21
aI0
aI19
aI18
aI0
aI21
aI16
aI0
aI16
aI19
aI21
aI20
aI16
aI16
aI19
aI0
aI16
aI16
aI17
aI16
aI16
aI16
aI0
aI16
aI16
aI20
aI21
aI20
aI17
aI20
aI0
aI16
aI0
aI0
aI0
aI0
aI17
aI16
aI19
aI21
aI21
aI16
aI0
aI21
aI18
aI0
aI16
aI20
aI16
aI19
aI0
aI21
aI0
aI20
aI16
aI17
aI16
aI0
aI21
aI21
aI21
aI21
aI16
aI16
aI16
aI16
aI18
aI17
aI21
aI19
aI0
aI0
aI21
aI16
aI16
aI21
aI16
aI16
aI0
aI21
aI16
aI19
aI16
aI21
aI0
aI21
aI16
aI16
aI16
aI21
aI19
aI20
aI16
aI16
aI19
aI16
aI16
aI21
aI16
aI21
aI21
aI20
aI21
aI20
aI0
aI16
aI16
aI21
aI20
aI21
aI0
aI0
aI17
aI21
aI21
aI16
aI21
aI16
aI21
aI0
aI19
aI17
aI18
aI16
aI19
aI17
aI21
aI16
aI0
aI20
aI19
aI21
aI20
aI0
aI16
aI16
aI16
aI16
aI16
aI16
aI16
aI16
aI17
aI16
aI21
aI17
aI0
aI21
aI0
aI16
aI21
aI0
aI16
aI0
aI0
aI18
aI20
aI19
aI0
aI17
aI19
aI21
aI16
aI19
aI16
aI0
aI0
aI16
aI20
aI21
aI16
aI0
aI16
aI16
aI16
aI20
aI16
aI16
aI0
aI21
aI21
aI17
aI16
aI21
aI16
aI19
aI20
aI16
aI16
aI0
aI16
aI20
aI0
aI21
aI0
aI18
aI17
aI0
aI0
aI16
aI0
aI16
aI16
aI16
aI16
aI20
aI17
aI20
aI16
aI0
aI20
aI16
aI0
aI21
aI16
aI0
aI0
aI0
aI16
aI0
aI19
aI0
aI16
aI0
aI18
aI0
aI0
aI18
aI0
aI16
aI16
aI16
aI0
aI16
aI17
aI19
aI15
aI0
aI17
aI21
aI16
aI16
aI20
aI0
aI16
aI16
aI16
aI16
aI16
aI21
aI19
aI16
aI16
aI0
aI0
aI21
aI21
aI16
aI0
aI18
aI0
aI16
aI16
aI19
aI19
aI16
aI19
aI18
aI21
aI21
aI16
aI20
aI19
aI0
aI20
aI0
aI16
aI16
aI0
aI16
aI21
aI21
aI16
aI0
aI21
aI16
aI21
aI18
aI16
aI0
aI19
aI0
aI16
aI16
aI21
aI20
aI17
aI0
aI0
aI16
aI16
aI21
aI20
aI18
aI16
aI16
aI17
aI16
aI20
aI16
aI20
aI21
aI0
aI0
aI18
aI0
aI16
aI20
aI17
aI17
aI19
aI16
aI16
aI16
aI17
aI16
aI16
aI19
aI19
aI16
aI0
aI20
aI16
aI21
aI19
aI16
aI16
aI16
aI21
aI19
aI16
aI16
aI16
aI21
aI16
aI16
aI16
aI21
aI21
aI16
aI21
aI16
aI18
aI16
aI21
aI16
aI20
aI18
aI0
aI18
aI19
aI16
aI19
aI16
aI21
aI16
aI16
aI16
aI16
aI16
aI21
aI16
aI19
aI16
aI21
aI20
aI21
aI21
aI0
aI0
aI21
aI21
aI16
aI16
aI17
aI0
aI16
aI19
aI16
aI17
aI21
aI16
aI0
aI16
aI0
aI19
aI0
aI16
aI0
aI16
aI16
aI0
aI19
aI16
aI20
aI18
aI21
aI20
aI18
aI20
aI19
aI20
aI19
aI20
aI16
aI16
aI16
aI20
aI10
aI16
aI16
aI21
aI17
aI17
aI19
aI21
aI20
aI16
aI19
aI0
aI16
aI21
aI0
aI16
aI20
aI18
aI21
aI19
aI0
aI0
aI16
aI21
aI20
aI0
aI0
aI19
aI16
aI16
aI16
aI0
aI0
aI20
aI19
aI16
aI19
aI20
aI16
aI16
aI19
aI16
aI16
aI16
aI21
aI16
aI16
aI16
aI16
aI0
aI0
aI20
aI21
aI20
aI19
aI20
aI16
aI21
aI16
aI16
aI16
aI16
aI16
aI17
aI18
aI17
aI16
aI18
aI21
aI0
aI20
aI0
aI0
aI16
aI16
aI16
aI21
aI16
aI16
aI16
aI20
aI0
aI0
aI19
aI20
aI21
aI20
aI20
aI16
aI16
aI17
aI21
aI17
aI17
aI16
aI16
aI16
aI21
aI16
aI16
aI20
aI18
aI17
aI21
aI16
aI16
aI16
aI21
aI17
aI0
aI0
aI16
aI0
aI16
aI16
aI16
aI16
aI20
aI18
aI0
aI19
aI18
aI20
aI19
aI16
aI20
aI17
aI20
aI16
aI0
aI0
aI16
aI18
aI0
aI16
aI16
aI16
aI20
aI20
aI16
aI17
aI0
aI21
aI0
aI16
aI16
aI0
aI0
aI16
aI16
aI21
aI16
aI16
aI16
aI21
aI18
aI16
aI21
aI21
aI16
aI20
aI16
aI19
aI16
aI21
aI0
aI16
aI21
aI0
aI0
aI0
aI17
aI16
aI21
aI0
aI20
aI0
aI20
aI16
aI19
aI19
aI16
aI16
aI19
aI16
aI18
aI0
aI17
aI21
aI16
aI0
aI20
aI17
aI21
aI16
aI16
aI0
aI21
aI21
aI20
aI16
aI20
aI17
aI19
aI0
aI16
aI16
aI16
aI16
aI19
aI19
aI18
aI19
aI16
aI18
aI0
aI16
aI19
aI0
aI0
aI18
aI16
aI0
aI21
aI0
aI18
aI21
aI20
aI16
aI20
aI19
a.